
stmmac.ko:     file format elf64-littleaarch64


Disassembly of section .text:

0000000000000000 <stmmac_disable_eee_mode>:
       0:	f81e0ff3 	str	x19, [sp,#-32]!
       4:	a9017bfd 	stp	x29, x30, [sp,#16]
       8:	910043fd 	add	x29, sp, #0x10
       c:	aa0003f3 	mov	x19, x0
      10:	94000000 	bl	0 <_mcount>
      14:	f9411260 	ldr	x0, [x19,#544]
      18:	f9400008 	ldr	x8, [x0]
      1c:	f9402908 	ldr	x8, [x8,#80]
      20:	d63f0100 	blr	x8
      24:	91216260 	add	x0, x19, #0x858
      28:	94000000 	bl	0 <del_timer_sync>
      2c:	3901327f 	strb	wzr, [x19,#76]
      30:	a9417bfd 	ldp	x29, x30, [sp,#16]
      34:	f84207f3 	ldr	x19, [sp],#32
      38:	d65f03c0 	ret

000000000000003c <stmmac_eee_init>:
      3c:	a9bc5ff8 	stp	x24, x23, [sp,#-64]!
      40:	a90157f6 	stp	x22, x21, [sp,#16]
      44:	a9024ff4 	stp	x20, x19, [sp,#32]
      48:	a9037bfd 	stp	x29, x30, [sp,#48]
      4c:	9100c3fd 	add	x29, sp, #0x30
      50:	aa0003f3 	mov	x19, x0
      54:	94000000 	bl	0 <_mcount>
      58:	f9434268 	ldr	x8, [x19,#1664]
      5c:	2a1f03e0 	mov	w0, wzr
      60:	b9400908 	ldr	w8, [x8,#8]
      64:	7100291f 	cmp	w8, #0xa
      68:	54000208 	b.hi	a8 <stmmac_eee_init+0x6c>
      6c:	52800029 	mov	w9, #0x1                   	// #1
      70:	1ac82128 	lsl	w8, w9, w8
      74:	5280f0c9 	mov	w9, #0x786                 	// #1926
      78:	6a09011f 	tst	w8, w9
      7c:	54000160 	b.eq	a8 <stmmac_eee_init+0x6c>
      80:	f9411268 	ldr	x8, [x19,#544]
      84:	b9405908 	ldr	w8, [x8,#88]
      88:	7100211f 	cmp	w8, #0x8
      8c:	54000188 	b.hi	bc <stmmac_eee_init+0x80>
      90:	52800029 	mov	w9, #0x1                   	// #1
      94:	1ac82128 	lsl	w8, w9, w8
      98:	52802249 	mov	w9, #0x112                 	// #274
      9c:	6a09011f 	tst	w8, w9
      a0:	540000e0 	b.eq	bc <stmmac_eee_init+0x80>
      a4:	2a1f03e0 	mov	w0, wzr
      a8:	a9437bfd 	ldp	x29, x30, [sp,#48]
      ac:	a9424ff4 	ldp	x20, x19, [sp,#32]
      b0:	a94157f6 	ldp	x22, x21, [sp,#16]
      b4:	a8c45ff8 	ldp	x24, x23, [sp],#64
      b8:	d65f03c0 	ret
      bc:	b946ba68 	ldr	w8, [x19,#1720]
      c0:	34ffff28 	cbz	w8, a4 <stmmac_eee_init+0x68>
      c4:	f9412260 	ldr	x0, [x19,#576]
      c8:	b948ae76 	ldr	w22, [x19,#2220]
      cc:	52800021 	mov	w1, #0x1                   	// #1
      d0:	94000000 	bl	0 <phy_init_eee>
      d4:	9108a274 	add	x20, x19, #0x228
      d8:	2a0003f7 	mov	w23, w0
      dc:	aa1403e0 	mov	x0, x20
      e0:	94000000 	bl	0 <_raw_spin_lock_irqsave>
      e4:	b948aa68 	ldr	w8, [x19,#2216]
      e8:	aa0003f5 	mov	x21, x0
      ec:	340001f7 	cbz	w23, 128 <stmmac_eee_init+0xec>
      f0:	34000128 	cbz	w8, 114 <stmmac_eee_init+0xd8>
      f4:	91216260 	add	x0, x19, #0x858
      f8:	94000000 	bl	0 <del_timer_sync>
      fc:	f9411260 	ldr	x0, [x19,#544]
     100:	2a1f03e1 	mov	w1, wzr
     104:	2a1603e2 	mov	w2, w22
     108:	f9400008 	ldr	x8, [x0]
     10c:	f9402d08 	ldr	x8, [x8,#88]
     110:	d63f0100 	blr	x8
     114:	aa1403e0 	mov	x0, x20
     118:	aa1503e1 	mov	x1, x21
     11c:	b908aa7f 	str	wzr, [x19,#2216]
     120:	94000000 	bl	0 <_raw_spin_unlock_irqrestore>
     124:	17ffffe0 	b	a4 <stmmac_eee_init+0x68>
     128:	35000468 	cbnz	w8, 1b4 <stmmac_eee_init+0x178>
     12c:	91216277 	add	x23, x19, #0x858
     130:	52800028 	mov	w8, #0x1                   	// #1
     134:	aa1703e0 	mov	x0, x23
     138:	2a1f03e1 	mov	w1, wzr
     13c:	aa1f03e2 	mov	x2, xzr
     140:	aa1f03e3 	mov	x3, xzr
     144:	b908aa68 	str	w8, [x19,#2216]
     148:	94000000 	bl	0 <init_timer_key>
     14c:	d2800008 	mov	x8, #0x0                   	// #0
     150:	f2a00008 	movk	x8, #0x0, lsl #16
     154:	f2c00008 	movk	x8, #0x0, lsl #32
     158:	f2e00008 	movk	x8, #0x0, lsl #48
     15c:	d2800009 	mov	x9, #0x0                   	// #0
     160:	f9043a68 	str	x8, [x19,#2160]
     164:	d2800008 	mov	x8, #0x0                   	// #0
     168:	f2a00009 	movk	x9, #0x0, lsl #16
     16c:	f2a00008 	movk	x8, #0x0, lsl #16
     170:	f2c00009 	movk	x9, #0x0, lsl #32
     174:	f2c00008 	movk	x8, #0x0, lsl #32
     178:	f9043e73 	str	x19, [x19,#2168]
     17c:	f2e00009 	movk	x9, #0x0, lsl #48
     180:	f2e00008 	movk	x8, #0x0, lsl #48
     184:	f9400138 	ldr	x24, [x9]
     188:	b9400100 	ldr	w0, [x8]
     18c:	94000000 	bl	0 <__msecs_to_jiffies>
     190:	8b180001 	add	x1, x0, x24
     194:	aa1703e0 	mov	x0, x23
     198:	94000000 	bl	0 <mod_timer>
     19c:	f9411260 	ldr	x0, [x19,#544]
     1a0:	52807d01 	mov	w1, #0x3e8                 	// #1000
     1a4:	2a1603e2 	mov	w2, w22
     1a8:	f9400008 	ldr	x8, [x0]
     1ac:	f9402d08 	ldr	x8, [x8,#88]
     1b0:	d63f0100 	blr	x8
     1b4:	f9411260 	ldr	x0, [x19,#544]
     1b8:	f9412269 	ldr	x9, [x19,#576]
     1bc:	f9400008 	ldr	x8, [x0]
     1c0:	b9436521 	ldr	w1, [x9,#868]
     1c4:	f9403108 	ldr	x8, [x8,#96]
     1c8:	d63f0100 	blr	x8
     1cc:	aa1403e0 	mov	x0, x20
     1d0:	aa1503e1 	mov	x1, x21
     1d4:	94000000 	bl	0 <_raw_spin_unlock_irqrestore>
     1d8:	52800020 	mov	w0, #0x1                   	// #1
     1dc:	17ffffb3 	b	a8 <stmmac_eee_init+0x6c>

00000000000001e0 <stmmac_eee_ctrl_timer>:
     1e0:	a9be4ff4 	stp	x20, x19, [sp,#-32]!
     1e4:	a9017bfd 	stp	x29, x30, [sp,#16]
     1e8:	910043fd 	add	x29, sp, #0x10
     1ec:	aa0003f3 	mov	x19, x0
     1f0:	94000000 	bl	0 <_mcount>
     1f4:	29432668 	ldp	w8, w9, [x19,#24]
     1f8:	6b08013f 	cmp	w9, w8
     1fc:	540000e1 	b.ne	218 <stmmac_eee_ctrl_timer+0x38>
     200:	39413268 	ldrb	w8, [x19,#76]
     204:	350000a8 	cbnz	w8, 218 <stmmac_eee_ctrl_timer+0x38>
     208:	f9411260 	ldr	x0, [x19,#544]
     20c:	f9400008 	ldr	x8, [x0]
     210:	f9402508 	ldr	x8, [x8,#72]
     214:	d63f0100 	blr	x8
     218:	d2800008 	mov	x8, #0x0                   	// #0
     21c:	d2800009 	mov	x9, #0x0                   	// #0
     220:	f2a00008 	movk	x8, #0x0, lsl #16
     224:	f2a00009 	movk	x9, #0x0, lsl #16
     228:	f2c00008 	movk	x8, #0x0, lsl #32
     22c:	f2c00009 	movk	x9, #0x0, lsl #32
     230:	f2e00008 	movk	x8, #0x0, lsl #48
     234:	f2e00009 	movk	x9, #0x0, lsl #48
     238:	f9400114 	ldr	x20, [x8]
     23c:	b9400120 	ldr	w0, [x9]
     240:	91216273 	add	x19, x19, #0x858
     244:	94000000 	bl	0 <__msecs_to_jiffies>
     248:	8b140001 	add	x1, x0, x20
     24c:	aa1303e0 	mov	x0, x19
     250:	94000000 	bl	0 <mod_timer>
     254:	a9417bfd 	ldp	x29, x30, [sp,#16]
     258:	a8c24ff4 	ldp	x20, x19, [sp],#32
     25c:	d65f03c0 	ret

0000000000000260 <stmmac_dvr_probe>:
     260:	f81b0ff9 	str	x25, [sp,#-80]!
     264:	a9015ff8 	stp	x24, x23, [sp,#16]
     268:	a90257f6 	stp	x22, x21, [sp,#32]
     26c:	a9034ff4 	stp	x20, x19, [sp,#48]
     270:	a9047bfd 	stp	x29, x30, [sp,#64]
     274:	910103fd 	add	x29, sp, #0x40
     278:	aa0203f5 	mov	x21, x2
     27c:	aa0103f6 	mov	x22, x1
     280:	aa0003f4 	mov	x20, x0
     284:	94000000 	bl	0 <_mcount>
     288:	d2800000 	mov	x0, #0x0                   	// #0
     28c:	f2a00000 	movk	x0, #0x0, lsl #16
     290:	f2c00000 	movk	x0, #0x0, lsl #32
     294:	f2e00000 	movk	x0, #0x0, lsl #48
     298:	94000000 	bl	0 <printk>
     29c:	52813800 	mov	w0, #0x9c0                 	// #2496
     2a0:	52800021 	mov	w1, #0x1                   	// #1
     2a4:	52800022 	mov	w2, #0x1                   	// #1
     2a8:	94000000 	bl	0 <alloc_etherdev_mqs>
     2ac:	b4002040 	cbz	x0, 6b4 <stmmac_dvr_probe+0x454>
     2b0:	9114d008 	add	x8, x0, #0x534
     2b4:	aa0003f3 	mov	x19, x0
     2b8:	f9000114 	str	x20, [x8]
     2bc:	f9058c14 	str	x20, [x0,#2840]
     2c0:	f9058800 	str	x0, [x0,#2832]
     2c4:	94000000 	bl	5b88 <stmmac_set_ethtool_ops>
     2c8:	d2800018 	mov	x24, #0x0                   	// #0
     2cc:	f2a00018 	movk	x24, #0x0, lsl #16
     2d0:	f2c00018 	movk	x24, #0x0, lsl #32
     2d4:	f2e00018 	movk	x24, #0x0, lsl #48
     2d8:	b9400308 	ldr	w8, [x24]
     2dc:	f907c276 	str	x22, [x19,#3968]
     2e0:	f9458a69 	ldr	x9, [x19,#2832]
     2e4:	d2800000 	mov	x0, #0x0                   	// #0
     2e8:	b90b5a68 	str	w8, [x19,#2904]
     2ec:	f94002a8 	ldr	x8, [x21]
     2f0:	f2a00000 	movk	x0, #0x0, lsl #16
     2f4:	f2c00000 	movk	x0, #0x0, lsl #32
     2f8:	f2e00000 	movk	x0, #0x0, lsl #48
     2fc:	f9058668 	str	x8, [x19,#2824]
     300:	f94002a8 	ldr	x8, [x21]
     304:	f9001d28 	str	x8, [x9,#56]
     308:	f9458661 	ldr	x1, [x19,#2824]
     30c:	94000000 	bl	0 <printk>
     310:	f9458a68 	ldr	x8, [x19,#2832]
     314:	d2800000 	mov	x0, #0x0                   	// #0
     318:	f2a00000 	movk	x0, #0x0, lsl #16
     31c:	f2c00000 	movk	x0, #0x0, lsl #32
     320:	f9401d01 	ldr	x1, [x8,#56]
     324:	f2e00000 	movk	x0, #0x0, lsl #48
     328:	94000000 	bl	0 <printk>
     32c:	d2800017 	mov	x23, #0x0                   	// #0
     330:	f2a00017 	movk	x23, #0x0, lsl #16
     334:	f2c00017 	movk	x23, #0x0, lsl #32
     338:	f2e00017 	movk	x23, #0x0, lsl #48
     33c:	d5382056 	mrs	x22, tcr_el1
     340:	aa1703e0 	mov	x0, x23
     344:	aa1603e1 	mov	x1, x22
     348:	94000000 	bl	0 <printk>
     34c:	926ffac1 	and	x1, x22, #0xfffffffffffeffff
     350:	aa1703e0 	mov	x0, x23
     354:	94000000 	bl	0 <printk>
     358:	b9401aa8 	ldr	w8, [x21,#24]
     35c:	f9458a69 	ldr	x9, [x19,#2832]
     360:	b9004128 	str	w8, [x9,#64]
     364:	b94012a8 	ldr	w8, [x21,#16]
     368:	b9113268 	str	w8, [x19,#4400]
     36c:	b94016a8 	ldr	w8, [x21,#20]
     370:	b911a268 	str	w8, [x19,#4512]
     374:	f94006a8 	ldr	x8, [x21,#8]
     378:	b4000108 	cbz	x8, 398 <stmmac_dvr_probe+0x138>
     37c:	f9458a69 	ldr	x9, [x19,#2832]
     380:	7940090a 	ldrh	w10, [x8,#4]
     384:	b9400108 	ldr	w8, [x8]
     388:	910cb129 	add	x9, x9, #0x32c
     38c:	f9400129 	ldr	x9, [x9]
     390:	7900092a 	strh	w10, [x9,#4]
     394:	b9000128 	str	w8, [x9]
     398:	f9458a68 	ldr	x8, [x19,#2832]
     39c:	d2800000 	mov	x0, #0x0                   	// #0
     3a0:	f2a00000 	movk	x0, #0x0, lsl #16
     3a4:	f2c00000 	movk	x0, #0x0, lsl #32
     3a8:	f2e00000 	movk	x0, #0x0, lsl #48
     3ac:	f9005288 	str	x8, [x20,#160]
     3b0:	94000000 	bl	0 <printk>
     3b4:	d2800017 	mov	x23, #0x0                   	// #0
     3b8:	f2a00017 	movk	x23, #0x0, lsl #16
     3bc:	f2c00017 	movk	x23, #0x0, lsl #32
     3c0:	f2e00017 	movk	x23, #0x0, lsl #48
     3c4:	b94002e8 	ldr	w8, [x23]
     3c8:	37f851a8 	tbnz	w8, #31, dfc <stmmac_dvr_probe+0xb9c>
     3cc:	d2800019 	mov	x25, #0x0                   	// #0
     3d0:	f2a00019 	movk	x25, #0x0, lsl #16
     3d4:	f2c00019 	movk	x25, #0x0, lsl #32
     3d8:	f2e00019 	movk	x25, #0x0, lsl #48
     3dc:	b9400328 	ldr	w8, [x25]
     3e0:	52873e29 	mov	w9, #0x39f1                	// #14833
     3e4:	51180108 	sub	w8, w8, #0x600
     3e8:	6b09011f 	cmp	w8, w9
     3ec:	540050e2 	b.cs	e08 <stmmac_dvr_probe+0xba8>
     3f0:	d2800016 	mov	x22, #0x0                   	// #0
     3f4:	f2a00016 	movk	x22, #0x0, lsl #16
     3f8:	f2c00016 	movk	x22, #0x0, lsl #32
     3fc:	f2e00016 	movk	x22, #0x0, lsl #48
     400:	b94002c8 	ldr	w8, [x22]
     404:	7100051f 	cmp	w8, #0x1
     408:	5400506c 	b.gt	e14 <stmmac_dvr_probe+0xbb4>
     40c:	36f80068 	tbz	w8, #31, 418 <stmmac_dvr_probe+0x1b8>
     410:	2a1f03e8 	mov	w8, wzr
     414:	b90002c8 	str	w8, [x22]
     418:	b9400308 	ldr	w8, [x24]
     41c:	7140411f 	cmp	w8, #0x10, lsl #12
     420:	54004fe2 	b.cs	e1c <stmmac_dvr_probe+0xbbc>
     424:	d2800015 	mov	x21, #0x0                   	// #0
     428:	f2a00015 	movk	x21, #0x0, lsl #16
     42c:	f2c00015 	movk	x21, #0x0, lsl #32
     430:	f2e00015 	movk	x21, #0x0, lsl #48
     434:	b94002a8 	ldr	w8, [x21]
     438:	36f80068 	tbz	w8, #31, 444 <stmmac_dvr_probe+0x1e4>
     43c:	52807d08 	mov	w8, #0x3e8                 	// #1000
     440:	b90002a8 	str	w8, [x21]
     444:	d2800014 	mov	x20, #0x0                   	// #0
     448:	f2a00014 	movk	x20, #0x0, lsl #16
     44c:	f2c00014 	movk	x20, #0x0, lsl #32
     450:	f2e00014 	movk	x20, #0x0, lsl #48
     454:	b9400281 	ldr	w1, [x20]
     458:	d2800000 	mov	x0, #0x0                   	// #0
     45c:	f2a00000 	movk	x0, #0x0, lsl #16
     460:	f2c00000 	movk	x0, #0x0, lsl #32
     464:	f2e00000 	movk	x0, #0x0, lsl #48
     468:	94000000 	bl	0 <printk>
     46c:	b9400321 	ldr	w1, [x25]
     470:	d2800000 	mov	x0, #0x0                   	// #0
     474:	f2a00000 	movk	x0, #0x0, lsl #16
     478:	f2c00000 	movk	x0, #0x0, lsl #32
     47c:	f2e00000 	movk	x0, #0x0, lsl #48
     480:	94000000 	bl	0 <printk>
     484:	d2800008 	mov	x8, #0x0                   	// #0
     488:	f2a00008 	movk	x8, #0x0, lsl #16
     48c:	f2c00008 	movk	x8, #0x0, lsl #32
     490:	f2e00008 	movk	x8, #0x0, lsl #48
     494:	b9400101 	ldr	w1, [x8]
     498:	d2800000 	mov	x0, #0x0                   	// #0
     49c:	f2a00000 	movk	x0, #0x0, lsl #16
     4a0:	f2c00000 	movk	x0, #0x0, lsl #32
     4a4:	f2e00000 	movk	x0, #0x0, lsl #48
     4a8:	94000000 	bl	0 <printk>
     4ac:	b94002e1 	ldr	w1, [x23]
     4b0:	d2800000 	mov	x0, #0x0                   	// #0
     4b4:	f2a00000 	movk	x0, #0x0, lsl #16
     4b8:	f2c00000 	movk	x0, #0x0, lsl #32
     4bc:	f2e00000 	movk	x0, #0x0, lsl #48
     4c0:	94000000 	bl	0 <printk>
     4c4:	b94002c1 	ldr	w1, [x22]
     4c8:	d2800000 	mov	x0, #0x0                   	// #0
     4cc:	f2a00000 	movk	x0, #0x0, lsl #16
     4d0:	f2c00000 	movk	x0, #0x0, lsl #32
     4d4:	f2e00000 	movk	x0, #0x0, lsl #48
     4d8:	94000000 	bl	0 <printk>
     4dc:	b9400301 	ldr	w1, [x24]
     4e0:	d2800000 	mov	x0, #0x0                   	// #0
     4e4:	f2a00000 	movk	x0, #0x0, lsl #16
     4e8:	f2c00000 	movk	x0, #0x0, lsl #32
     4ec:	f2e00000 	movk	x0, #0x0, lsl #48
     4f0:	94000000 	bl	0 <printk>
     4f4:	b94002a1 	ldr	w1, [x21]
     4f8:	d2800000 	mov	x0, #0x0                   	// #0
     4fc:	f2a00000 	movk	x0, #0x0, lsl #16
     500:	f2c00000 	movk	x0, #0x0, lsl #32
     504:	f2e00000 	movk	x0, #0x0, lsl #48
     508:	94000000 	bl	0 <printk>
     50c:	d2800018 	mov	x24, #0x0                   	// #0
     510:	f2a00018 	movk	x24, #0x0, lsl #16
     514:	f2c00018 	movk	x24, #0x0, lsl #32
     518:	f2e00018 	movk	x24, #0x0, lsl #48
     51c:	b9400301 	ldr	w1, [x24]
     520:	d2800000 	mov	x0, #0x0                   	// #0
     524:	f2a00000 	movk	x0, #0x0, lsl #16
     528:	f2c00000 	movk	x0, #0x0, lsl #32
     52c:	f2e00000 	movk	x0, #0x0, lsl #48
     530:	94000000 	bl	0 <printk>
     534:	b9400288 	ldr	w8, [x20]
     538:	71007d1f 	cmp	w8, #0x1f
     53c:	54000068 	b.hi	548 <stmmac_dvr_probe+0x2e8>
     540:	f947c269 	ldr	x9, [x19,#3968]
     544:	b9000528 	str	w8, [x9,#4]
     548:	d2800014 	mov	x20, #0x0                   	// #0
     54c:	f9458e60 	ldr	x0, [x19,#2840]
     550:	f2a00014 	movk	x20, #0x0, lsl #16
     554:	f2c00014 	movk	x20, #0x0, lsl #32
     558:	f2e00014 	movk	x20, #0x0, lsl #48
     55c:	aa1403e1 	mov	x1, x20
     560:	94000000 	bl	0 <devm_clk_get>
     564:	d2800008 	mov	x8, #0x0                   	// #0
     568:	d2800009 	mov	x9, #0x0                   	// #0
     56c:	f2a00008 	movk	x8, #0x0, lsl #16
     570:	f2a00009 	movk	x9, #0x0, lsl #16
     574:	f2c00008 	movk	x8, #0x0, lsl #32
     578:	f2c00009 	movk	x9, #0x0, lsl #32
     57c:	f2e00008 	movk	x8, #0x0, lsl #48
     580:	f2e00009 	movk	x9, #0x0, lsl #48
     584:	f100001f 	cmp	x0, #0x0
     588:	f9089e60 	str	x0, [x19,#4408]
     58c:	9a880120 	csel	x0, x9, x8, eq
     590:	94000000 	bl	0 <printk>
     594:	f9489e75 	ldr	x21, [x19,#4408]
     598:	b13ffebf 	cmn	x21, #0xfff
     59c:	540002a3 	b.cc	5f0 <stmmac_dvr_probe+0x390>
     5a0:	f9458e60 	ldr	x0, [x19,#2840]
     5a4:	d2800001 	mov	x1, #0x0                   	// #0
     5a8:	d2800002 	mov	x2, #0x0                   	// #0
     5ac:	f2a00001 	movk	x1, #0x0, lsl #16
     5b0:	f2a00002 	movk	x2, #0x0, lsl #16
     5b4:	f2c00001 	movk	x1, #0x0, lsl #32
     5b8:	f2c00002 	movk	x2, #0x0, lsl #32
     5bc:	f2e00001 	movk	x1, #0x0, lsl #48
     5c0:	f2e00002 	movk	x2, #0x0, lsl #48
     5c4:	94000000 	bl	0 <dev_warn>
     5c8:	d2800000 	mov	x0, #0x0                   	// #0
     5cc:	f2a00000 	movk	x0, #0x0, lsl #16
     5d0:	f2c00000 	movk	x0, #0x0, lsl #32
     5d4:	f2e00000 	movk	x0, #0x0, lsl #48
     5d8:	94000000 	bl	0 <printk>
     5dc:	f947c268 	ldr	x8, [x19,#3968]
     5e0:	b9403108 	ldr	w8, [x8,#48]
     5e4:	34000c88 	cbz	w8, 774 <stmmac_dvr_probe+0x514>
     5e8:	aa1f03f5 	mov	x21, xzr
     5ec:	f9089e7f 	str	xzr, [x19,#4408]
     5f0:	aa1503e0 	mov	x0, x21
     5f4:	94000000 	bl	0 <clk_prepare>
     5f8:	350000c0 	cbnz	w0, 610 <stmmac_dvr_probe+0x3b0>
     5fc:	aa1503e0 	mov	x0, x21
     600:	94000000 	bl	0 <clk_enable>
     604:	34000060 	cbz	w0, 610 <stmmac_dvr_probe+0x3b0>
     608:	aa1503e0 	mov	x0, x21
     60c:	94000000 	bl	0 <clk_unprepare>
     610:	f9458e60 	ldr	x0, [x19,#2840]
     614:	d2800001 	mov	x1, #0x0                   	// #0
     618:	f2a00001 	movk	x1, #0x0, lsl #16
     61c:	f2c00001 	movk	x1, #0x0, lsl #32
     620:	f2e00001 	movk	x1, #0x0, lsl #48
     624:	94000000 	bl	0 <devm_clk_get>
     628:	aa0003f5 	mov	x21, x0
     62c:	b13ffc1f 	cmn	x0, #0xfff
     630:	f908a260 	str	x0, [x19,#4416]
     634:	540000a3 	b.cc	648 <stmmac_dvr_probe+0x3e8>
     638:	b10816bf 	cmn	x21, #0x205
     63c:	54003840 	b.eq	d44 <stmmac_dvr_probe+0xae4>
     640:	aa1f03f5 	mov	x21, xzr
     644:	f908a27f 	str	xzr, [x19,#4416]
     648:	aa1503e0 	mov	x0, x21
     64c:	94000000 	bl	0 <clk_prepare>
     650:	350000c0 	cbnz	w0, 668 <stmmac_dvr_probe+0x408>
     654:	aa1503e0 	mov	x0, x21
     658:	94000000 	bl	0 <clk_enable>
     65c:	34000060 	cbz	w0, 668 <stmmac_dvr_probe+0x408>
     660:	aa1503e0 	mov	x0, x21
     664:	94000000 	bl	0 <clk_unprepare>
     668:	f9458e60 	ldr	x0, [x19,#2840]
     66c:	aa1403e1 	mov	x1, x20
     670:	2a1f03e2 	mov	w2, wzr
     674:	2a1f03e3 	mov	w3, wzr
     678:	2a1f03e4 	mov	w4, wzr
     67c:	94000000 	bl	0 <__devm_reset_control_get>
     680:	b13ffc1f 	cmn	x0, #0xfff
     684:	f908a660 	str	x0, [x19,#4424]
     688:	540001a3 	b.cc	6bc <stmmac_dvr_probe+0x45c>
     68c:	b108141f 	cmn	x0, #0x205
     690:	54000920 	b.eq	7b4 <stmmac_dvr_probe+0x554>
     694:	f9458e60 	ldr	x0, [x19,#2840]
     698:	d2800001 	mov	x1, #0x0                   	// #0
     69c:	f2a00001 	movk	x1, #0x0, lsl #16
     6a0:	f2c00001 	movk	x1, #0x0, lsl #32
     6a4:	f2e00001 	movk	x1, #0x0, lsl #48
     6a8:	94000000 	bl	0 <_dev_info>
     6ac:	f908a67f 	str	xzr, [x19,#4424]
     6b0:	14000005 	b	6c4 <stmmac_dvr_probe+0x464>
     6b4:	12800175 	mov	w21, #0xfffffff4            	// #-12
     6b8:	140001aa 	b	d60 <stmmac_dvr_probe+0xb00>
     6bc:	b4000040 	cbz	x0, 6c4 <stmmac_dvr_probe+0x464>
     6c0:	94000000 	bl	0 <reset_control_deassert>
     6c4:	d2800000 	mov	x0, #0x0                   	// #0
     6c8:	f2a00000 	movk	x0, #0x0, lsl #16
     6cc:	f2c00000 	movk	x0, #0x0, lsl #32
     6d0:	f2e00000 	movk	x0, #0x0, lsl #48
     6d4:	94000000 	bl	0 <printk>
     6d8:	f947c268 	ldr	x8, [x19,#3968]
     6dc:	b9403509 	ldr	w9, [x8,#52]
     6e0:	340002c9 	cbz	w9, 738 <stmmac_dvr_probe+0x4d8>
     6e4:	f9458a68 	ldr	x8, [x19,#2832]
     6e8:	b9423d09 	ldr	w9, [x8,#572]
     6ec:	32140129 	orr	w9, w9, #0x1000
     6f0:	b9023d09 	str	w9, [x8,#572]
     6f4:	f947c268 	ldr	x8, [x19,#3968]
     6f8:	f9458660 	ldr	x0, [x19,#2824]
     6fc:	294c0901 	ldp	w1, w2, [x8,#96]
     700:	52822488 	mov	w8, #0x1124                	// #4388
     704:	8b080263 	add	x3, x19, x8
     708:	94000000 	bl	8490 <dwmac1000_setup>
     70c:	b4000300 	cbz	x0, 76c <stmmac_dvr_probe+0x50c>
     710:	b9512668 	ldr	w8, [x19,#4388]
     714:	f9059260 	str	x0, [x19,#2848]
     718:	7101011f 	cmp	w8, #0x40
     71c:	5400030b 	b.lt	77c <stmmac_dvr_probe+0x51c>
     720:	d2800008 	mov	x8, #0x0                   	// #0
     724:	f2a00008 	movk	x8, #0x0, lsl #16
     728:	f2c00008 	movk	x8, #0x0, lsl #32
     72c:	f2e00008 	movk	x8, #0x0, lsl #48
     730:	f9000c08 	str	x8, [x0,#24]
     734:	14000034 	b	804 <stmmac_dvr_probe+0x5a4>
     738:	b940b108 	ldr	w8, [x8,#176]
     73c:	34000408 	cbz	w8, 7bc <stmmac_dvr_probe+0x55c>
     740:	f9458a68 	ldr	x8, [x19,#2832]
     744:	b9423d09 	ldr	w9, [x8,#572]
     748:	32140129 	orr	w9, w9, #0x1000
     74c:	b9023d09 	str	w9, [x8,#572]
     750:	f947c268 	ldr	x8, [x19,#3968]
     754:	f9458660 	ldr	x0, [x19,#2824]
     758:	294c0901 	ldp	w1, w2, [x8,#96]
     75c:	52822488 	mov	w8, #0x1124                	// #4388
     760:	8b080263 	add	x3, x19, x8
     764:	94000000 	bl	da04 <dwmac4_setup>
     768:	b5fffd40 	cbnz	x0, 710 <stmmac_dvr_probe+0x4b0>
     76c:	12800175 	mov	w21, #0xfffffff4            	// #-12
     770:	14000170 	b	d30 <stmmac_dvr_probe+0xad0>
     774:	b9513a75 	ldr	w21, [x19,#4408]
     778:	14000178 	b	d58 <stmmac_dvr_probe+0xaf8>
     77c:	b9400308 	ldr	w8, [x24]
     780:	340002a8 	cbz	w8, 7d4 <stmmac_dvr_probe+0x574>
     784:	d2800008 	mov	x8, #0x0                   	// #0
     788:	f2a00008 	movk	x8, #0x0, lsl #16
     78c:	f2c00008 	movk	x8, #0x0, lsl #32
     790:	f2e00008 	movk	x8, #0x0, lsl #48
     794:	f9000c08 	str	x8, [x0,#24]
     798:	d2800000 	mov	x0, #0x0                   	// #0
     79c:	f2a00000 	movk	x0, #0x0, lsl #16
     7a0:	f2c00000 	movk	x0, #0x0, lsl #32
     7a4:	f2e00000 	movk	x0, #0x0, lsl #48
     7a8:	94000000 	bl	0 <printk>
     7ac:	52800028 	mov	w8, #0x1                   	// #1
     7b0:	14000014 	b	800 <stmmac_dvr_probe+0x5a0>
     7b4:	12804095 	mov	w21, #0xfffffdfb            	// #-517
     7b8:	1400015e 	b	d30 <stmmac_dvr_probe+0xad0>
     7bc:	f9458660 	ldr	x0, [x19,#2824]
     7c0:	52822488 	mov	w8, #0x1124                	// #4388
     7c4:	8b080261 	add	x1, x19, x8
     7c8:	94000000 	bl	99f4 <dwmac100_setup>
     7cc:	b5fffa20 	cbnz	x0, 710 <stmmac_dvr_probe+0x4b0>
     7d0:	17ffffe7 	b	76c <stmmac_dvr_probe+0x50c>
     7d4:	d2800008 	mov	x8, #0x0                   	// #0
     7d8:	f2a00008 	movk	x8, #0x0, lsl #16
     7dc:	f2c00008 	movk	x8, #0x0, lsl #32
     7e0:	f2e00008 	movk	x8, #0x0, lsl #48
     7e4:	f9000c08 	str	x8, [x0,#24]
     7e8:	d2800000 	mov	x0, #0x0                   	// #0
     7ec:	f2a00000 	movk	x0, #0x0, lsl #16
     7f0:	f2c00000 	movk	x0, #0x0, lsl #32
     7f4:	f2e00000 	movk	x0, #0x0, lsl #48
     7f8:	94000000 	bl	0 <printk>
     7fc:	52800048 	mov	w8, #0x2                   	// #2
     800:	b911b268 	str	w8, [x19,#4528]
     804:	f9459268 	ldr	x8, [x19,#2848]
     808:	f9400908 	ldr	x8, [x8,#16]
     80c:	f9403908 	ldr	x8, [x8,#112]
     810:	b4000348 	cbz	x8, 878 <stmmac_dvr_probe+0x618>
     814:	f9458660 	ldr	x0, [x19,#2824]
     818:	913e2261 	add	x1, x19, #0xf88
     81c:	d63f0100 	blr	x8
     820:	d2800000 	mov	x0, #0x0                   	// #0
     824:	f2a00000 	movk	x0, #0x0, lsl #16
     828:	f2c00000 	movk	x0, #0x0, lsl #32
     82c:	52800028 	mov	w8, #0x1                   	// #1
     830:	f2e00000 	movk	x0, #0x0, lsl #48
     834:	b9112268 	str	w8, [x19,#4384]
     838:	94000000 	bl	0 <printk>
     83c:	b94fe268 	ldr	w8, [x19,#4064]
     840:	f947c269 	ldr	x9, [x19,#3968]
     844:	b9003928 	str	w8, [x9,#56]
     848:	b94fa668 	ldr	w8, [x19,#4004]
     84c:	f947c269 	ldr	x9, [x19,#3968]
     850:	b9004928 	str	w8, [x9,#72]
     854:	f947c268 	ldr	x8, [x19,#3968]
     858:	f9459269 	ldr	x9, [x19,#2848]
     85c:	b9404908 	ldr	w8, [x8,#72]
     860:	b9005d28 	str	w8, [x9,#92]
     864:	f947c268 	ldr	x8, [x19,#3968]
     868:	b9405109 	ldr	w9, [x8,#80]
     86c:	34000149 	cbz	w9, 894 <stmmac_dvr_probe+0x634>
     870:	2a1f03e9 	mov	w9, wzr
     874:	14000009 	b	898 <stmmac_dvr_probe+0x638>
     878:	d2800000 	mov	x0, #0x0                   	// #0
     87c:	f2a00000 	movk	x0, #0x0, lsl #16
     880:	f2c00000 	movk	x0, #0x0, lsl #32
     884:	f2e00000 	movk	x0, #0x0, lsl #48
     888:	b911227f 	str	wzr, [x19,#4384]
     88c:	94000000 	bl	0 <printk>
     890:	14000010 	b	8d0 <stmmac_dvr_probe+0x670>
     894:	b94fc669 	ldr	w9, [x19,#4036]
     898:	b9003d09 	str	w9, [x8,#60]
     89c:	b94fca68 	ldr	w8, [x19,#4040]
     8a0:	f947c269 	ldr	x9, [x19,#3968]
     8a4:	b9004128 	str	w8, [x9,#64]
     8a8:	b94fd268 	ldr	w8, [x19,#4048]
     8ac:	34000088 	cbz	w8, 8bc <stmmac_dvr_probe+0x65c>
     8b0:	f947c268 	ldr	x8, [x19,#3968]
     8b4:	52800049 	mov	w9, #0x2                   	// #2
     8b8:	14000005 	b	8cc <stmmac_dvr_probe+0x66c>
     8bc:	b94fce68 	ldr	w8, [x19,#4044]
     8c0:	34000088 	cbz	w8, 8d0 <stmmac_dvr_probe+0x670>
     8c4:	f947c268 	ldr	x8, [x19,#3968]
     8c8:	52800029 	mov	w9, #0x1                   	// #1
     8cc:	b9004109 	str	w9, [x8,#64]
     8d0:	b9512668 	ldr	w8, [x19,#4388]
     8d4:	7100fd1f 	cmp	w8, #0x3f
     8d8:	540000cd 	b.le	8f0 <stmmac_dvr_probe+0x690>
     8dc:	d2800008 	mov	x8, #0x0                   	// #0
     8e0:	f2a00008 	movk	x8, #0x0, lsl #16
     8e4:	f2c00008 	movk	x8, #0x0, lsl #32
     8e8:	f2e00008 	movk	x8, #0x0, lsl #48
     8ec:	14000028 	b	98c <stmmac_dvr_probe+0x72c>
     8f0:	f947c268 	ldr	x8, [x19,#3968]
     8f4:	b9403908 	ldr	w8, [x8,#56]
     8f8:	34000248 	cbz	w8, 940 <stmmac_dvr_probe+0x6e0>
     8fc:	d2800000 	mov	x0, #0x0                   	// #0
     900:	f2a00000 	movk	x0, #0x0, lsl #16
     904:	f2c00000 	movk	x0, #0x0, lsl #32
     908:	f2e00000 	movk	x0, #0x0, lsl #48
     90c:	94000000 	bl	0 <printk>
     910:	b9512668 	ldr	w8, [x19,#4388]
     914:	7100d51f 	cmp	w8, #0x35
     918:	5400028b 	b.lt	968 <stmmac_dvr_probe+0x708>
     91c:	d2800000 	mov	x0, #0x0                   	// #0
     920:	f2a00000 	movk	x0, #0x0, lsl #16
     924:	f2c00000 	movk	x0, #0x0, lsl #32
     928:	f2e00000 	movk	x0, #0x0, lsl #48
     92c:	94000000 	bl	0 <printk>
     930:	52800029 	mov	w9, #0x1                   	// #1
     934:	d2800008 	mov	x8, #0x0                   	// #0
     938:	b911b669 	str	w9, [x19,#4532]
     93c:	14000011 	b	980 <stmmac_dvr_probe+0x720>
     940:	d2800000 	mov	x0, #0x0                   	// #0
     944:	f2a00000 	movk	x0, #0x0, lsl #16
     948:	f2c00000 	movk	x0, #0x0, lsl #32
     94c:	f2e00000 	movk	x0, #0x0, lsl #48
     950:	94000000 	bl	0 <printk>
     954:	d2800008 	mov	x8, #0x0                   	// #0
     958:	f2a00008 	movk	x8, #0x0, lsl #16
     95c:	f2c00008 	movk	x8, #0x0, lsl #32
     960:	f2e00008 	movk	x8, #0x0, lsl #48
     964:	1400000a 	b	98c <stmmac_dvr_probe+0x72c>
     968:	d2800000 	mov	x0, #0x0                   	// #0
     96c:	f2a00000 	movk	x0, #0x0, lsl #16
     970:	f2c00000 	movk	x0, #0x0, lsl #32
     974:	f2e00000 	movk	x0, #0x0, lsl #48
     978:	94000000 	bl	0 <printk>
     97c:	d2800008 	mov	x8, #0x0                   	// #0
     980:	f2a00008 	movk	x8, #0x0, lsl #16
     984:	f2c00008 	movk	x8, #0x0, lsl #32
     988:	f2e00008 	movk	x8, #0x0, lsl #48
     98c:	f9459269 	ldr	x9, [x19,#2848]
     990:	f9000528 	str	x8, [x9,#8]
     994:	f947c268 	ldr	x8, [x19,#3968]
     998:	b9404108 	ldr	w8, [x8,#64]
     99c:	34000248 	cbz	w8, 9e4 <stmmac_dvr_probe+0x784>
     9a0:	f9459269 	ldr	x9, [x19,#2848]
     9a4:	d2800000 	mov	x0, #0x0                   	// #0
     9a8:	f2a00000 	movk	x0, #0x0, lsl #16
     9ac:	f2c00000 	movk	x0, #0x0, lsl #32
     9b0:	f2e00000 	movk	x0, #0x0, lsl #48
     9b4:	b9005528 	str	w8, [x9,#84]
     9b8:	94000000 	bl	0 <printk>
     9bc:	b9512668 	ldr	w8, [x19,#4388]
     9c0:	7100fd1f 	cmp	w8, #0x3f
     9c4:	5400010c 	b.gt	9e4 <stmmac_dvr_probe+0x784>
     9c8:	f9459268 	ldr	x8, [x19,#2848]
     9cc:	d2800000 	mov	x0, #0x0                   	// #0
     9d0:	f2a00000 	movk	x0, #0x0, lsl #16
     9d4:	f2c00000 	movk	x0, #0x0, lsl #32
     9d8:	b9405501 	ldr	w1, [x8,#84]
     9dc:	f2e00000 	movk	x0, #0x0, lsl #48
     9e0:	94000000 	bl	0 <printk>
     9e4:	f947c268 	ldr	x8, [x19,#3968]
     9e8:	b9403d09 	ldr	w9, [x8,#60]
     9ec:	340000e9 	cbz	w9, a08 <stmmac_dvr_probe+0x7a8>
     9f0:	d2800000 	mov	x0, #0x0                   	// #0
     9f4:	f2a00000 	movk	x0, #0x0, lsl #16
     9f8:	f2c00000 	movk	x0, #0x0, lsl #32
     9fc:	f2e00000 	movk	x0, #0x0, lsl #48
     a00:	94000000 	bl	0 <printk>
     a04:	f947c268 	ldr	x8, [x19,#3968]
     a08:	b9404908 	ldr	w8, [x8,#72]
     a0c:	34000128 	cbz	w8, a30 <stmmac_dvr_probe+0x7d0>
     a10:	d2800000 	mov	x0, #0x0                   	// #0
     a14:	f2a00000 	movk	x0, #0x0, lsl #16
     a18:	f2c00000 	movk	x0, #0x0, lsl #32
     a1c:	f2e00000 	movk	x0, #0x0, lsl #48
     a20:	94000000 	bl	0 <printk>
     a24:	f9458e60 	ldr	x0, [x19,#2840]
     a28:	52800021 	mov	w1, #0x1                   	// #1
     a2c:	94000000 	bl	0 <device_set_wakeup_capable>
     a30:	b94fc268 	ldr	w8, [x19,#4032]
     a34:	340000c8 	cbz	w8, a4c <stmmac_dvr_probe+0x7ec>
     a38:	d2800000 	mov	x0, #0x0                   	// #0
     a3c:	f2a00000 	movk	x0, #0x0, lsl #16
     a40:	f2c00000 	movk	x0, #0x0, lsl #32
     a44:	f2e00000 	movk	x0, #0x0, lsl #48
     a48:	94000000 	bl	0 <printk>
     a4c:	f9458a68 	ldr	x8, [x19,#2832]
     a50:	910cb108 	add	x8, x8, #0x32c
     a54:	f9400101 	ldr	x1, [x8]
     a58:	b9400028 	ldr	w8, [x1]
     a5c:	37000088 	tbnz	w8, #0, a6c <stmmac_dvr_probe+0x80c>
     a60:	79400829 	ldrh	w9, [x1,#4]
     a64:	2a090108 	orr	w8, w8, w9
     a68:	35000408 	cbnz	w8, ae8 <stmmac_dvr_probe+0x888>
     a6c:	f9459260 	ldr	x0, [x19,#2848]
     a70:	2a1f03e2 	mov	w2, wzr
     a74:	f9400008 	ldr	x8, [x0]
     a78:	f9402108 	ldr	x8, [x8,#64]
     a7c:	d63f0100 	blr	x8
     a80:	f9458a61 	ldr	x1, [x19,#2832]
     a84:	910cb028 	add	x8, x1, #0x32c
     a88:	f9400114 	ldr	x20, [x8]
     a8c:	b9400288 	ldr	w8, [x20]
     a90:	37000088 	tbnz	w8, #0, aa0 <stmmac_dvr_probe+0x840>
     a94:	79400a89 	ldrh	w9, [x20,#4]
     a98:	2a090108 	orr	w8, w8, w9
     a9c:	350001a8 	cbnz	w8, ad0 <stmmac_dvr_probe+0x870>
     aa0:	52800028 	mov	w8, #0x1                   	// #1
     aa4:	3909d828 	strb	w8, [x1,#630]
     aa8:	528000c1 	mov	w1, #0x6                   	// #6
     aac:	aa1403e0 	mov	x0, x20
     ab0:	94000000 	bl	0 <get_random_bytes>
     ab4:	39400288 	ldrb	w8, [x20]
     ab8:	121e1508 	and	w8, w8, #0xfc
     abc:	321f0108 	orr	w8, w8, #0x2
     ac0:	39000288 	strb	w8, [x20]
     ac4:	f9458a61 	ldr	x1, [x19,#2832]
     ac8:	910cb028 	add	x8, x1, #0x32c
     acc:	f9400114 	ldr	x20, [x8]
     ad0:	d2800000 	mov	x0, #0x0                   	// #0
     ad4:	f2a00000 	movk	x0, #0x0, lsl #16
     ad8:	f2c00000 	movk	x0, #0x0, lsl #32
     adc:	f2e00000 	movk	x0, #0x0, lsl #48
     ae0:	aa1403e2 	mov	x2, x20
     ae4:	94000000 	bl	0 <printk>
     ae8:	d2800009 	mov	x9, #0x0                   	// #0
     aec:	f947c26a 	ldr	x10, [x19,#3968]
     af0:	f2a00009 	movk	x9, #0x0, lsl #16
     af4:	d2800268 	mov	x8, #0x13                  	// #19
     af8:	f2c00009 	movk	x9, #0x0, lsl #32
     afc:	f2c00408 	movk	x8, #0x20, lsl #32
     b00:	f2e00009 	movk	x9, #0x0, lsl #48
     b04:	f9010a69 	str	x9, [x19,#528]
     b08:	f9007e68 	str	x8, [x19,#248]
     b0c:	3942d149 	ldrb	w9, [x10,#180]
     b10:	340001a9 	cbz	w9, b44 <stmmac_dvr_probe+0x8e4>
     b14:	b94fc269 	ldr	w9, [x19,#4032]
     b18:	34000169 	cbz	w9, b44 <stmmac_dvr_probe+0x8e4>
     b1c:	d2800000 	mov	x0, #0x0                   	// #0
     b20:	f2a00000 	movk	x0, #0x0, lsl #16
     b24:	f2c00000 	movk	x0, #0x0, lsl #32
     b28:	91404108 	add	x8, x8, #0x10, lsl #12
     b2c:	52800029 	mov	w9, #0x1                   	// #1
     b30:	f2e00000 	movk	x0, #0x0, lsl #48
     b34:	f9007e68 	str	x8, [x19,#248]
     b38:	39266269 	strb	w9, [x19,#2456]
     b3c:	94000000 	bl	0 <printk>
     b40:	f9407e68 	ldr	x8, [x19,#248]
     b44:	f9407a69 	ldr	x9, [x19,#240]
     b48:	aa090108 	orr	x8, x8, x9
     b4c:	b27b0108 	orr	x8, x8, #0x20
     b50:	f9007a68 	str	x8, [x19,#240]
     b54:	b94002e0 	ldr	w0, [x23]
     b58:	94000000 	bl	0 <__msecs_to_jiffies>
     b5c:	f9407a68 	ldr	x8, [x19,#240]
     b60:	d2800009 	mov	x9, #0x0                   	// #0
     b64:	f2a00009 	movk	x9, #0x0, lsl #16
     b68:	f2c00009 	movk	x9, #0x0, lsl #32
     b6c:	b2780108 	orr	x8, x8, #0x100
     b70:	b9046660 	str	w0, [x19,#1124]
     b74:	f9007a68 	str	x8, [x19,#240]
     b78:	f2e00009 	movk	x9, #0x0, lsl #48
     b7c:	b9400128 	ldr	w8, [x9]
     b80:	71007d1f 	cmp	w8, #0x1f
     b84:	54000069 	b.ls	b90 <stmmac_dvr_probe+0x930>
     b88:	528007e8 	mov	w8, #0x3f                  	// #63
     b8c:	14000005 	b	ba0 <stmmac_dvr_probe+0x940>
     b90:	34000088 	cbz	w8, ba0 <stmmac_dvr_probe+0x940>
     b94:	12800009 	mov	w9, #0xffffffff            	// #-1
     b98:	1ac82128 	lsl	w8, w9, w8
     b9c:	2a2803e8 	mvn	w8, w8
     ba0:	b9112a68 	str	w8, [x19,#4392]
     ba4:	b94002c8 	ldr	w8, [x22]
     ba8:	34000068 	cbz	w8, bb4 <stmmac_dvr_probe+0x954>
     bac:	52800068 	mov	w8, #0x3                   	// #3
     bb0:	b90b5668 	str	w8, [x19,#2900]
     bb4:	b9512668 	ldr	w8, [x19,#4388]
     bb8:	7100d51f 	cmp	w8, #0x35
     bbc:	5400016b 	b.lt	be8 <stmmac_dvr_probe+0x988>
     bc0:	f947c268 	ldr	x8, [x19,#3968]
     bc4:	b9405508 	ldr	w8, [x8,#84]
     bc8:	35000108 	cbnz	w8, be8 <stmmac_dvr_probe+0x988>
     bcc:	d2800000 	mov	x0, #0x0                   	// #0
     bd0:	f2a00000 	movk	x0, #0x0, lsl #16
     bd4:	f2c00000 	movk	x0, #0x0, lsl #32
     bd8:	52800028 	mov	w8, #0x1                   	// #1
     bdc:	f2e00000 	movk	x0, #0x0, lsl #48
     be0:	b9124a68 	str	w8, [x19,#4680]
     be4:	94000000 	bl	0 <printk>
     be8:	d2800002 	mov	x2, #0x0                   	// #0
     bec:	f2a00002 	movk	x2, #0x0, lsl #16
     bf0:	91290274 	add	x20, x19, #0xa40
     bf4:	f2c00002 	movk	x2, #0x0, lsl #32
     bf8:	f2e00002 	movk	x2, #0x0, lsl #48
     bfc:	52800803 	mov	w3, #0x40                  	// #64
     c00:	aa1303e0 	mov	x0, x19
     c04:	aa1403e1 	mov	x1, x20
     c08:	94000000 	bl	0 <netif_napi_add>
     c0c:	f947c268 	ldr	x8, [x19,#3968]
     c10:	b90b2a7f 	str	wzr, [x19,#2856]
     c14:	b9094a7f 	str	wzr, [x19,#2376]
     c18:	b9403108 	ldr	w8, [x8,#48]
     c1c:	34000188 	cbz	w8, c4c <stmmac_dvr_probe+0x9ec>
     c20:	b9115268 	str	w8, [x19,#4432]
     c24:	b94f9e68 	ldr	w8, [x19,#3996]
     c28:	34000328 	cbz	w8, c8c <stmmac_dvr_probe+0xa2c>
     c2c:	f947c268 	ldr	x8, [x19,#3968]
     c30:	b9400908 	ldr	w8, [x8,#8]
     c34:	51001d09 	sub	w9, w8, #0x7
     c38:	71000d3f 	cmp	w9, #0x3
     c3c:	540001e8 	b.hi	c78 <stmmac_dvr_probe+0xa18>
     c40:	f9459268 	ldr	x8, [x19,#2848]
     c44:	52800029 	mov	w9, #0x1                   	// #1
     c48:	14000010 	b	c88 <stmmac_dvr_probe+0xa28>
     c4c:	f9489e60 	ldr	x0, [x19,#4408]
     c50:	94000000 	bl	0 <clk_get_rate>
     c54:	52822a08 	mov	w8, #0x1150                	// #4432
     c58:	38686a68 	ldrb	w8, [x19,x8]
     c5c:	372ffe48 	tbnz	w8, #5, c24 <stmmac_dvr_probe+0x9c4>
     c60:	5281d7e8 	mov	w8, #0xebf                 	// #3775
     c64:	72a042c8 	movk	w8, #0x216, lsl #16
     c68:	6b08001f 	cmp	w0, w8
     c6c:	54000888 	b.hi	d7c <stmmac_dvr_probe+0xb1c>
     c70:	52800048 	mov	w8, #0x2                   	// #2
     c74:	17ffffeb 	b	c20 <stmmac_dvr_probe+0x9c0>
     c78:	71000d1f 	cmp	w8, #0x3
     c7c:	54000081 	b.ne	c8c <stmmac_dvr_probe+0xa2c>
     c80:	f9459268 	ldr	x8, [x19,#2848]
     c84:	52800049 	mov	w9, #0x2                   	// #2
     c88:	b9005909 	str	w9, [x8,#88]
     c8c:	f9459268 	ldr	x8, [x19,#2848]
     c90:	b9405908 	ldr	w8, [x8,#88]
     c94:	7100211f 	cmp	w8, #0x8
     c98:	54000408 	b.hi	d18 <stmmac_dvr_probe+0xab8>
     c9c:	52800029 	mov	w9, #0x1                   	// #1
     ca0:	1ac82128 	lsl	w8, w9, w8
     ca4:	52802249 	mov	w9, #0x112                 	// #274
     ca8:	6a09011f 	tst	w8, w9
     cac:	54000360 	b.eq	d18 <stmmac_dvr_probe+0xab8>
     cb0:	aa1303e0 	mov	x0, x19
     cb4:	94000000 	bl	0 <register_netdev>
     cb8:	2a0003f5 	mov	w21, w0
     cbc:	34000520 	cbz	w0, d60 <stmmac_dvr_probe+0xb00>
     cc0:	d2800000 	mov	x0, #0x0                   	// #0
     cc4:	d2800001 	mov	x1, #0x0                   	// #0
     cc8:	f2a00000 	movk	x0, #0x0, lsl #16
     ccc:	f2a00001 	movk	x1, #0x0, lsl #16
     cd0:	f2c00000 	movk	x0, #0x0, lsl #32
     cd4:	f2c00001 	movk	x1, #0x0, lsl #32
     cd8:	f2e00000 	movk	x0, #0x0, lsl #48
     cdc:	f2e00001 	movk	x1, #0x0, lsl #48
     ce0:	2a1503e2 	mov	w2, w21
     ce4:	94000000 	bl	0 <printk>
     ce8:	f9459268 	ldr	x8, [x19,#2848]
     cec:	b9405908 	ldr	w8, [x8,#88]
     cf0:	7100211f 	cmp	w8, #0x8
     cf4:	540000c8 	b.hi	d0c <stmmac_dvr_probe+0xaac>
     cf8:	52800029 	mov	w9, #0x1                   	// #1
     cfc:	1ac82128 	lsl	w8, w9, w8
     d00:	52802249 	mov	w9, #0x112                 	// #274
     d04:	6a09011f 	tst	w8, w9
     d08:	54000101 	b.ne	d28 <stmmac_dvr_probe+0xac8>
     d0c:	aa1303e0 	mov	x0, x19
     d10:	94000000 	bl	73a4 <stmmac_mdio_unregister>
     d14:	14000005 	b	d28 <stmmac_dvr_probe+0xac8>
     d18:	aa1303e0 	mov	x0, x19
     d1c:	94000000 	bl	6c5c <stmmac_mdio_register>
     d20:	36fffc80 	tbz	w0, #31, cb0 <stmmac_dvr_probe+0xa50>
     d24:	2a0003f5 	mov	w21, w0
     d28:	aa1403e0 	mov	x0, x20
     d2c:	94000000 	bl	0 <netif_napi_del>
     d30:	f948a274 	ldr	x20, [x19,#4416]
     d34:	aa1403e0 	mov	x0, x20
     d38:	94000000 	bl	0 <clk_disable>
     d3c:	aa1403e0 	mov	x0, x20
     d40:	94000000 	bl	0 <clk_unprepare>
     d44:	f9489e74 	ldr	x20, [x19,#4408]
     d48:	aa1403e0 	mov	x0, x20
     d4c:	94000000 	bl	0 <clk_disable>
     d50:	aa1403e0 	mov	x0, x20
     d54:	94000000 	bl	0 <clk_unprepare>
     d58:	aa1303e0 	mov	x0, x19
     d5c:	94000000 	bl	0 <free_netdev>
     d60:	2a1503e0 	mov	w0, w21
     d64:	a9447bfd 	ldp	x29, x30, [sp,#64]
     d68:	a9434ff4 	ldp	x20, x19, [sp,#48]
     d6c:	a94257f6 	ldp	x22, x21, [sp,#32]
     d70:	a9415ff8 	ldp	x24, x23, [sp,#16]
     d74:	f84507f9 	ldr	x25, [sp],#80
     d78:	d65f03c0 	ret
     d7c:	5290dfe8 	mov	w8, #0x86ff                	// #34559
     d80:	72a07268 	movk	w8, #0x393, lsl #16
     d84:	6b08001f 	cmp	w0, w8
     d88:	54000068 	b.hi	d94 <stmmac_dvr_probe+0xb34>
     d8c:	52800068 	mov	w8, #0x3                   	// #3
     d90:	17ffffa4 	b	c20 <stmmac_dvr_probe+0x9c0>
     d94:	529c1fe8 	mov	w8, #0xe0ff                	// #57599
     d98:	72a0bea8 	movk	w8, #0x5f5, lsl #16
     d9c:	6b08001f 	cmp	w0, w8
     da0:	540000a8 	b.hi	db4 <stmmac_dvr_probe+0xb54>
     da4:	b911527f 	str	wzr, [x19,#4432]
     da8:	b94f9e68 	ldr	w8, [x19,#3996]
     dac:	35fff408 	cbnz	w8, c2c <stmmac_dvr_probe+0x9cc>
     db0:	17ffffb7 	b	c8c <stmmac_dvr_probe+0xa2c>
     db4:	529a2fe8 	mov	w8, #0xd17f                	// #53631
     db8:	72a11e08 	movk	w8, #0x8f0, lsl #16
     dbc:	6b08001f 	cmp	w0, w8
     dc0:	54000068 	b.hi	dcc <stmmac_dvr_probe+0xb6c>
     dc4:	52800028 	mov	w8, #0x1                   	// #1
     dc8:	17ffff96 	b	c20 <stmmac_dvr_probe+0x9c0>
     dcc:	52964fe8 	mov	w8, #0xb27f                	// #45695
     dd0:	72a1dcc8 	movk	w8, #0xee6, lsl #16
     dd4:	6b08001f 	cmp	w0, w8
     dd8:	54000068 	b.hi	de4 <stmmac_dvr_probe+0xb84>
     ddc:	52800088 	mov	w8, #0x4                   	// #4
     de0:	17ffff90 	b	c20 <stmmac_dvr_probe+0x9c0>
     de4:	52945fe8 	mov	w8, #0xa2ff                	// #41727
     de8:	72a23c28 	movk	w8, #0x11e1, lsl #16
     dec:	6b08001f 	cmp	w0, w8
     df0:	54fff1a8 	b.hi	c24 <stmmac_dvr_probe+0x9c4>
     df4:	528000a8 	mov	w8, #0x5                   	// #5
     df8:	17ffff8a 	b	c20 <stmmac_dvr_probe+0x9c0>
     dfc:	52827108 	mov	w8, #0x1388                	// #5000
     e00:	b90002e8 	str	w8, [x23]
     e04:	17fffd72 	b	3cc <stmmac_dvr_probe+0x16c>
     e08:	5280c008 	mov	w8, #0x600                 	// #1536
     e0c:	b9000328 	str	w8, [x25]
     e10:	17fffd78 	b	3f0 <stmmac_dvr_probe+0x190>
     e14:	52800068 	mov	w8, #0x3                   	// #3
     e18:	17fffd7f 	b	414 <stmmac_dvr_probe+0x1b4>
     e1c:	529fffe8 	mov	w8, #0xffff                	// #65535
     e20:	b9000308 	str	w8, [x24]
     e24:	17fffd80 	b	424 <stmmac_dvr_probe+0x1c4>

0000000000000e28 <stmmac_poll>:
     e28:	d10243ff 	sub	sp, sp, #0x90
     e2c:	a9036ffc 	stp	x28, x27, [sp,#48]
     e30:	a90467fa 	stp	x26, x25, [sp,#64]
     e34:	a9055ff8 	stp	x24, x23, [sp,#80]
     e38:	a90657f6 	stp	x22, x21, [sp,#96]
     e3c:	a9074ff4 	stp	x20, x19, [sp,#112]
     e40:	a9087bfd 	stp	x29, x30, [sp,#128]
     e44:	910203fd 	add	x29, sp, #0x80
     e48:	b9002fe1 	str	w1, [sp,#44]
     e4c:	aa0003f3 	mov	x19, x0
     e50:	94000000 	bl	0 <_mcount>
     e54:	f9418a68 	ldr	x8, [x19,#784]
     e58:	d1050275 	sub	x21, x19, #0x140
     e5c:	aa1503e0 	mov	x0, x21
     e60:	91000508 	add	x8, x8, #0x1
     e64:	f9018a68 	str	x8, [x19,#784]
     e68:	94001062 	bl	4ff0 <stmmac_tx_clean>
     e6c:	f9407268 	ldr	x8, [x19,#224]
     e70:	b8598279 	ldur	w25, [x19,#-104]
     e74:	395ba669 	ldrb	w9, [x19,#1769]
     e78:	f9000bf3 	str	x19, [sp,#16]
     e7c:	b9405517 	ldr	w23, [x8,#84]
     e80:	361802c9 	tbz	w9, #3, ed8 <stmmac_poll+0xb0>
     e84:	d2800000 	mov	x0, #0x0                   	// #0
     e88:	d2800001 	mov	x1, #0x0                   	// #0
     e8c:	f2a00000 	movk	x0, #0x0, lsl #16
     e90:	f2a00001 	movk	x1, #0x0, lsl #16
     e94:	f2c00000 	movk	x0, #0x0, lsl #32
     e98:	f2c00001 	movk	x1, #0x0, lsl #32
     e9c:	f2e00000 	movk	x0, #0x0, lsl #48
     ea0:	f2e00001 	movk	x1, #0x0, lsl #48
     ea4:	94000000 	bl	0 <printk>
     ea8:	b948b6a8 	ldr	w8, [x21,#2228]
     eac:	f94112a9 	ldr	x9, [x21,#544]
     eb0:	5280190a 	mov	w10, #0xc8                  	// #200
     eb4:	52804001 	mov	w1, #0x200                 	// #512
     eb8:	7100011f 	cmp	w8, #0x0
     ebc:	f9400528 	ldr	x8, [x9,#8]
     ec0:	52801809 	mov	w9, #0xc0                  	// #192
     ec4:	9a8a0129 	csel	x9, x9, x10, eq
     ec8:	f8696aa0 	ldr	x0, [x21,x9]
     ecc:	f9404d08 	ldr	x8, [x8,#152]
     ed0:	52800022 	mov	w2, #0x1                   	// #1
     ed4:	d63f0100 	blr	x8
     ed8:	b9402fe8 	ldr	w8, [sp,#44]
     edc:	d280001b 	mov	x27, #0x0                   	// #0
     ee0:	340029a8 	cbz	w8, 1414 <stmmac_poll+0x5ec>
     ee4:	f90007fb 	str	x27, [sp,#8]
     ee8:	f2a0001b 	movk	x27, #0x0, lsl #16
     eec:	f2c0001b 	movk	x27, #0x0, lsl #32
     ef0:	2a1f03f6 	mov	w22, wzr
     ef4:	910c02b8 	add	x24, x21, #0x300
     ef8:	910502a8 	add	x8, x21, #0x140
     efc:	f2e0001b 	movk	x27, #0x0, lsl #48
     f00:	a901a3fb 	stp	x27, x8, [sp,#24]
     f04:	1400000e 	b	f3c <stmmac_poll+0x114>
     f08:	f9410aa1 	ldr	x1, [x21,#528]
     f0c:	d2800000 	mov	x0, #0x0                   	// #0
     f10:	f2a00000 	movk	x0, #0x0, lsl #16
     f14:	f2c00000 	movk	x0, #0x0, lsl #32
     f18:	f2e00000 	movk	x0, #0x0, lsl #48
     f1c:	94000000 	bl	0 <printk>
     f20:	f9410aa8 	ldr	x8, [x21,#528]
     f24:	f940c109 	ldr	x9, [x8,#384]
     f28:	91000529 	add	x9, x9, #0x1
     f2c:	f900c109 	str	x9, [x8,#384]
     f30:	b9402fe8 	ldr	w8, [sp,#44]
     f34:	6b16011f 	cmp	w8, w22
     f38:	54002680 	b.eq	1408 <stmmac_poll+0x5e0>
     f3c:	b948b6a8 	ldr	w8, [x21,#2228]
     f40:	2a1903f3 	mov	w19, w25
     f44:	340000a8 	cbz	w8, f58 <stmmac_poll+0x130>
     f48:	f94066a8 	ldr	x8, [x21,#200]
     f4c:	93407e69 	sxtw	x9, w19
     f50:	8b09151b 	add	x27, x8, x9, lsl #5
     f54:	14000003 	b	f60 <stmmac_poll+0x138>
     f58:	f94062a8 	ldr	x8, [x21,#192]
     f5c:	8b33d11b 	add	x27, x8, w19, sxtw #4
     f60:	f94112a8 	ldr	x8, [x21,#544]
     f64:	f9410aa9 	ldr	x9, [x21,#528]
     f68:	aa1803e1 	mov	x1, x24
     f6c:	aa1b03e2 	mov	x2, x27
     f70:	f9400508 	ldr	x8, [x8,#8]
     f74:	9104c120 	add	x0, x9, #0x130
     f78:	f9403508 	ldr	x8, [x8,#104]
     f7c:	d63f0100 	blr	x8
     f80:	37182460 	tbnz	w0, #3, 140c <stmmac_poll+0x5e4>
     f84:	b940daa8 	ldr	w8, [x21,#216]
     f88:	b948b6a9 	ldr	w9, [x21,#2228]
     f8c:	2a0003fa 	mov	w26, w0
     f90:	11000508 	add	w8, w8, #0x1
     f94:	12002119 	and	w25, w8, #0x1ff
     f98:	b900dab9 	str	w25, [x21,#216]
     f9c:	34000089 	cbz	w9, fac <stmmac_poll+0x184>
     fa0:	f94066a8 	ldr	x8, [x21,#200]
     fa4:	8b191514 	add	x20, x8, x25, lsl #5
     fa8:	14000003 	b	fb4 <stmmac_poll+0x18c>
     fac:	f94062a8 	ldr	x8, [x21,#192]
     fb0:	8b395114 	add	x20, x8, w25, uxtw #4
     fb4:	f9800280 	prfm	pldl1keep, [x20]
     fb8:	b948b6a8 	ldr	w8, [x21,#2228]
     fbc:	34000188 	cbz	w8, fec <stmmac_poll+0x1c4>
     fc0:	f94112a8 	ldr	x8, [x21,#544]
     fc4:	f9400508 	ldr	x8, [x8,#8]
     fc8:	f9403908 	ldr	x8, [x8,#112]
     fcc:	b4000108 	cbz	x8, fec <stmmac_poll+0x1c4>
     fd0:	f9410aa9 	ldr	x9, [x21,#528]
     fd4:	f94066aa 	ldr	x10, [x21,#200]
     fd8:	93407e6b 	sxtw	x11, w19
     fdc:	aa1803e1 	mov	x1, x24
     fe0:	9104c120 	add	x0, x9, #0x130
     fe4:	8b0b1542 	add	x2, x10, x11, lsl #5
     fe8:	d63f0100 	blr	x8
     fec:	7100075f 	cmp	w26, #0x1
     ff0:	110006d6 	add	w22, w22, #0x1
     ff4:	54001460 	b.eq	1280 <stmmac_poll+0x458>
     ff8:	b94826a8 	ldr	w8, [x21,#2084]
     ffc:	f94112a9 	ldr	x9, [x21,#544]
    1000:	aa1b03e0 	mov	x0, x27
    1004:	2a1703e1 	mov	w1, w23
    1008:	7101011f 	cmp	w8, #0x40
    100c:	f9400528 	ldr	x8, [x9,#8]
    1010:	1a9fa7e9 	cset	w9, lt
    1014:	d37df129 	lsl	x9, x9, #3
    1018:	b8696b7c 	ldr	w28, [x27,x9]
    101c:	f9403108 	ldr	x8, [x8,#96]
    1020:	d63f0100 	blr	x8
    1024:	b940e2a3 	ldr	w3, [x21,#224]
    1028:	2a0003e2 	mov	w2, w0
    102c:	6b03001f 	cmp	w0, w3
    1030:	54fff6c8 	b.hi	f08 <stmmac_poll+0xe0>
    1034:	3960a6a8 	ldrb	w8, [x21,#2089]
    1038:	51001049 	sub	w9, w2, #0x4
    103c:	7100135f 	cmp	w26, #0x4
    1040:	1a89005a 	csel	w26, w2, w9, eq
    1044:	36180128 	tbz	w8, #3, 1068 <stmmac_poll+0x240>
    1048:	d2800000 	mov	x0, #0x0                   	// #0
    104c:	f2a00000 	movk	x0, #0x0, lsl #16
    1050:	f2c00000 	movk	x0, #0x0, lsl #32
    1054:	f2e00000 	movk	x0, #0x0, lsl #48
    1058:	aa1b03e1 	mov	x1, x27
    105c:	2a1303e2 	mov	w2, w19
    1060:	2a1c03e3 	mov	w3, w28
    1064:	94000000 	bl	0 <printk>
    1068:	f94342a8 	ldr	x8, [x21,#1664]
    106c:	b940b108 	ldr	w8, [x8,#176]
    1070:	350000e8 	cbnz	w8, 108c <stmmac_poll+0x264>
    1074:	b940e6a8 	ldr	w8, [x21,#228]
    1078:	6b08035f 	cmp	w26, w8
    107c:	540014a3 	b.cc	1310 <stmmac_poll+0x4e8>
    1080:	b940eaa8 	ldr	w8, [x21,#232]
    1084:	7102011f 	cmp	w8, #0x80
    1088:	54001442 	b.cs	1310 <stmmac_poll+0x4e8>
    108c:	f9406aa8 	ldr	x8, [x21,#208]
    1090:	f873d91c 	ldr	x28, [x8,w19,sxtw #3]
    1094:	b400129c 	cbz	x28, 12e4 <stmmac_poll+0x4bc>
    1098:	f940cb88 	ldr	x8, [x28,#400]
    109c:	93407e69 	sxtw	x9, w19
    10a0:	d37df133 	lsl	x19, x9, #3
    10a4:	aa1c03e0 	mov	x0, x28
    10a8:	d1000908 	sub	x8, x8, #0x2
    10ac:	f9800100 	prfm	pldl1keep, [x8]
    10b0:	f9406aa8 	ldr	x8, [x21,#208]
    10b4:	2a1a03e1 	mov	w1, w26
    10b8:	f833691f 	str	xzr, [x8,x19]
    10bc:	b940eaa8 	ldr	w8, [x21,#232]
    10c0:	11000508 	add	w8, w8, #0x1
    10c4:	b900eaa8 	str	w8, [x21,#232]
    10c8:	94000000 	bl	0 <skb_put>
    10cc:	f9407ea8 	ldr	x8, [x21,#248]
    10d0:	f9410ea0 	ldr	x0, [x21,#536]
    10d4:	b940e2a2 	ldr	w2, [x21,#224]
    10d8:	f8736901 	ldr	x1, [x8,x19]
    10dc:	b4000060 	cbz	x0, 10e8 <stmmac_poll+0x2c0>
    10e0:	f9412408 	ldr	x8, [x0,#584]
    10e4:	b5000048 	cbnz	x8, 10ec <stmmac_poll+0x2c4>
    10e8:	f9400fe8 	ldr	x8, [sp,#24]
    10ec:	f9401508 	ldr	x8, [x8,#40]
    10f0:	b4000088 	cbz	x8, 1100 <stmmac_poll+0x2d8>
    10f4:	52800043 	mov	w3, #0x2                   	// #2
    10f8:	aa1f03e4 	mov	x4, xzr
    10fc:	d63f0100 	blr	x8
    1100:	3960a6a8 	ldrb	w8, [x21,#2089]
    1104:	36200128 	tbz	w8, #4, 1128 <stmmac_poll+0x300>
    1108:	f940cb82 	ldr	x2, [x28,#400]
    110c:	d2800000 	mov	x0, #0x0                   	// #0
    1110:	f2a00000 	movk	x0, #0x0, lsl #16
    1114:	f2c00000 	movk	x0, #0x0, lsl #32
    1118:	93407f43 	sxtw	x3, w26
    111c:	f2e00000 	movk	x0, #0x0, lsl #48
    1120:	52800041 	mov	w1, #0x2                   	// #2
    1124:	94000000 	bl	0 <print_hex_dump_bytes>
    1128:	b940f2a8 	ldr	w8, [x21,#240]
    112c:	340004a8 	cbz	w8, 11c0 <stmmac_poll+0x398>
    1130:	f94112a8 	ldr	x8, [x21,#544]
    1134:	b94946a1 	ldr	w1, [x21,#2372]
    1138:	aa1b03e0 	mov	x0, x27
    113c:	f9400508 	ldr	x8, [x8,#8]
    1140:	f9404908 	ldr	x8, [x8,#144]
    1144:	d63f0100 	blr	x8
    1148:	34000100 	cbz	w0, 1168 <stmmac_poll+0x340>
    114c:	f9410aa0 	ldr	x0, [x21,#528]
    1150:	d2800001 	mov	x1, #0x0                   	// #0
    1154:	f2a00001 	movk	x1, #0x0, lsl #16
    1158:	f2c00001 	movk	x1, #0x0, lsl #32
    115c:	f2e00001 	movk	x1, #0x0, lsl #48
    1160:	94000000 	bl	0 <netdev_err>
    1164:	14000017 	b	11c0 <stmmac_poll+0x398>
    1168:	f94112a8 	ldr	x8, [x21,#544]
    116c:	f94342a9 	ldr	x9, [x21,#1664]
    1170:	b94946a1 	ldr	w1, [x21,#2372]
    1174:	f9400508 	ldr	x8, [x8,#8]
    1178:	b940b129 	ldr	w9, [x9,#176]
    117c:	f9404508 	ldr	x8, [x8,#136]
    1180:	7100013f 	cmp	w9, #0x0
    1184:	9a940360 	csel	x0, x27, x20, eq
    1188:	d63f0100 	blr	x8
    118c:	f9410aa8 	ldr	x8, [x21,#528]
    1190:	d2800001 	mov	x1, #0x0                   	// #0
    1194:	f2a00001 	movk	x1, #0x0, lsl #16
    1198:	aa0003f3 	mov	x19, x0
    119c:	f2c00001 	movk	x1, #0x0, lsl #32
    11a0:	f2e00001 	movk	x1, #0x0, lsl #48
    11a4:	aa0803e0 	mov	x0, x8
    11a8:	aa1303e2 	mov	x2, x19
    11ac:	94000000 	bl	0 <netdev_info>
    11b0:	f940c388 	ldr	x8, [x28,#384]
    11b4:	b9417389 	ldr	w9, [x28,#368]
    11b8:	8b090108 	add	x8, x8, x9
    11bc:	f9000913 	str	x19, [x8,#16]
    11c0:	f9410aa1 	ldr	x1, [x21,#528]
    11c4:	3943c428 	ldrb	w8, [x1,#241]
    11c8:	360002e8 	tbz	w8, #0, 1224 <stmmac_poll+0x3fc>
    11cc:	f940cb88 	ldr	x8, [x28,#400]
    11d0:	5295110a 	mov	w10, #0xa888                	// #43144
    11d4:	79401909 	ldrh	w9, [x8,#12]
    11d8:	6b0a013f 	cmp	w9, w10
    11dc:	54000060 	b.eq	11e8 <stmmac_poll+0x3c0>
    11e0:	7102053f 	cmp	w9, #0x81
    11e4:	54000201 	b.ne	1224 <stmmac_poll+0x3fc>
    11e8:	f9400109 	ldr	x9, [x8]
    11ec:	b940090a 	ldr	w10, [x8,#8]
    11f0:	79401d13 	ldrh	w19, [x8,#14]
    11f4:	52800081 	mov	w1, #0x4                   	// #4
    11f8:	aa1c03e0 	mov	x0, x28
    11fc:	f8004109 	stur	x9, [x8,#4]
    1200:	b9000d0a 	str	w10, [x8,#12]
    1204:	94000000 	bl	0 <skb_pull>
    1208:	52801028 	mov	w8, #0x81                  	// #129
    120c:	79027b88 	strh	w8, [x28,#316]
    1210:	321c0268 	orr	w8, w19, #0x10
    1214:	5ac00908 	rev	w8, w8
    1218:	53107d08 	lsr	w8, w8, #16
    121c:	79027f88 	strh	w8, [x28,#318]
    1220:	f9410aa1 	ldr	x1, [x21,#528]
    1224:	aa1c03e0 	mov	x0, x28
    1228:	94000000 	bl	0 <eth_type_trans>
    122c:	7902ab80 	strh	w0, [x28,#340]
    1230:	34000117 	cbz	w23, 1250 <stmmac_poll+0x428>
    1234:	aa1c03e8 	mov	x8, x28
    1238:	784f8d09 	ldrh	w9, [x8,#248]!
    123c:	3940090a 	ldrb	w10, [x8,#2]
    1240:	33101d49 	bfi	w9, w10, #16, #8
    1244:	12167929 	and	w9, w9, #0xfffffdff
    1248:	32180129 	orr	w9, w9, #0x100
    124c:	79000109 	strh	w9, [x8]
    1250:	f94013e0 	ldr	x0, [sp,#32]
    1254:	aa1c03e1 	mov	x1, x28
    1258:	94000000 	bl	0 <napi_gro_receive>
    125c:	f9410aa8 	ldr	x8, [x21,#528]
    1260:	f9409909 	ldr	x9, [x8,#304]
    1264:	91000529 	add	x9, x9, #0x1
    1268:	f9009909 	str	x9, [x8,#304]
    126c:	f9410aa8 	ldr	x8, [x21,#528]
    1270:	f940a109 	ldr	x9, [x8,#320]
    1274:	8b3ac129 	add	x9, x9, w26, sxtw
    1278:	f900a109 	str	x9, [x8,#320]
    127c:	17ffff2d 	b	f30 <stmmac_poll+0x108>
    1280:	f9410aa8 	ldr	x8, [x21,#528]
    1284:	f940a909 	ldr	x9, [x8,#336]
    1288:	91000529 	add	x9, x9, #0x1
    128c:	f900a909 	str	x9, [x8,#336]
    1290:	b940f2a8 	ldr	w8, [x21,#240]
    1294:	34ffe4e8 	cbz	w8, f30 <stmmac_poll+0x108>
    1298:	b948b6a8 	ldr	w8, [x21,#2228]
    129c:	35ffe4a8 	cbnz	w8, f30 <stmmac_poll+0x108>
    12a0:	f9406aa8 	ldr	x8, [x21,#208]
    12a4:	937d7e69 	sbfiz	x9, x19, #3, #32
    12a8:	f829691f 	str	xzr, [x8,x9]
    12ac:	f9407ea8 	ldr	x8, [x21,#248]
    12b0:	f9410ea0 	ldr	x0, [x21,#536]
    12b4:	b940e2a2 	ldr	w2, [x21,#224]
    12b8:	f8696901 	ldr	x1, [x8,x9]
    12bc:	b4000060 	cbz	x0, 12c8 <stmmac_poll+0x4a0>
    12c0:	f9412408 	ldr	x8, [x0,#584]
    12c4:	b5000048 	cbnz	x8, 12cc <stmmac_poll+0x4a4>
    12c8:	f9400fe8 	ldr	x8, [sp,#24]
    12cc:	f9401508 	ldr	x8, [x8,#40]
    12d0:	b4ffe308 	cbz	x8, f30 <stmmac_poll+0x108>
    12d4:	52800043 	mov	w3, #0x2                   	// #2
    12d8:	aa1f03e4 	mov	x4, xzr
    12dc:	d63f0100 	blr	x8
    12e0:	17ffff14 	b	f30 <stmmac_poll+0x108>
    12e4:	f9410aa1 	ldr	x1, [x21,#528]
    12e8:	d2800000 	mov	x0, #0x0                   	// #0
    12ec:	f2a00000 	movk	x0, #0x0, lsl #16
    12f0:	f2c00000 	movk	x0, #0x0, lsl #32
    12f4:	f2e00000 	movk	x0, #0x0, lsl #48
    12f8:	94000000 	bl	0 <printk>
    12fc:	f9410aa8 	ldr	x8, [x21,#528]
    1300:	f940b109 	ldr	x9, [x8,#352]
    1304:	91000529 	add	x9, x9, #0x1
    1308:	f900b109 	str	x9, [x8,#352]
    130c:	17ffff09 	b	f30 <stmmac_poll+0x108>
    1310:	f9410aa0 	ldr	x0, [x21,#528]
    1314:	52800402 	mov	w2, #0x20                  	// #32
    1318:	11000b41 	add	w1, w26, #0x2
    131c:	72a04102 	movk	w2, #0x208, lsl #16
    1320:	94000000 	bl	0 <__netdev_alloc_skb>
    1324:	b4000600 	cbz	x0, 13e4 <stmmac_poll+0x5bc>
    1328:	f940c808 	ldr	x8, [x0,#400]
    132c:	b9416009 	ldr	w9, [x0,#352]
    1330:	aa0003fc 	mov	x28, x0
    1334:	93407f42 	sxtw	x2, w26
    1338:	91000900 	add	x0, x8, #0x2
    133c:	11000928 	add	w8, w9, #0x2
    1340:	f900cb80 	str	x0, [x28,#400]
    1344:	b9016388 	str	w8, [x28,#352]
    1348:	f9407ea9 	ldr	x9, [x21,#248]
    134c:	f9410ea8 	ldr	x8, [x21,#536]
    1350:	f873d921 	ldr	x1, [x9,w19,sxtw #3]
    1354:	b4000068 	cbz	x8, 1360 <stmmac_poll+0x538>
    1358:	f9412509 	ldr	x9, [x8,#584]
    135c:	b5000049 	cbnz	x9, 1364 <stmmac_poll+0x53c>
    1360:	f9400fe9 	ldr	x9, [sp,#24]
    1364:	f9402929 	ldr	x9, [x9,#80]
    1368:	93407e73 	sxtw	x19, w19
    136c:	f90003e2 	str	x2, [sp]
    1370:	b40000a9 	cbz	x9, 1384 <stmmac_poll+0x55c>
    1374:	52800043 	mov	w3, #0x2                   	// #2
    1378:	aa0803e0 	mov	x0, x8
    137c:	d63f0120 	blr	x9
    1380:	f940cb80 	ldr	x0, [x28,#400]
    1384:	f9406aa8 	ldr	x8, [x21,#208]
    1388:	d37df273 	lsl	x19, x19, #3
    138c:	2a1a03e2 	mov	w2, w26
    1390:	f8736908 	ldr	x8, [x8,x19]
    1394:	f940c901 	ldr	x1, [x8,#400]
    1398:	94000000 	bl	0 <memcpy>
    139c:	aa1c03e0 	mov	x0, x28
    13a0:	2a1a03e1 	mov	w1, w26
    13a4:	94000000 	bl	0 <skb_put>
    13a8:	f9407ea8 	ldr	x8, [x21,#248]
    13ac:	f9410ea0 	ldr	x0, [x21,#536]
    13b0:	f8736901 	ldr	x1, [x8,x19]
    13b4:	b4000060 	cbz	x0, 13c0 <stmmac_poll+0x598>
    13b8:	f9412408 	ldr	x8, [x0,#584]
    13bc:	b5000048 	cbnz	x8, 13c4 <stmmac_poll+0x59c>
    13c0:	f9400fe8 	ldr	x8, [sp,#24]
    13c4:	f9402d08 	ldr	x8, [x8,#88]
    13c8:	f94003e2 	ldr	x2, [sp]
    13cc:	b4ffe9a8 	cbz	x8, 1100 <stmmac_poll+0x2d8>
    13d0:	52800043 	mov	w3, #0x2                   	// #2
    13d4:	d63f0100 	blr	x8
    13d8:	3960a6a8 	ldrb	w8, [x21,#2089]
    13dc:	3727e968 	tbnz	w8, #4, 1108 <stmmac_poll+0x2e0>
    13e0:	17ffff52 	b	1128 <stmmac_poll+0x300>
    13e4:	94000000 	bl	0 <net_ratelimit>
    13e8:	34fff8a0 	cbz	w0, 12fc <stmmac_poll+0x4d4>
    13ec:	f9410ea0 	ldr	x0, [x21,#536]
    13f0:	d2800001 	mov	x1, #0x0                   	// #0
    13f4:	f2a00001 	movk	x1, #0x0, lsl #16
    13f8:	f2c00001 	movk	x1, #0x0, lsl #32
    13fc:	f2e00001 	movk	x1, #0x0, lsl #48
    1400:	94000000 	bl	0 <dev_warn>
    1404:	17ffffbe 	b	12fc <stmmac_poll+0x4d4>
    1408:	b9402ff6 	ldr	w22, [sp,#44]
    140c:	f94007fb 	ldr	x27, [sp,#8]
    1410:	14000002 	b	1418 <stmmac_poll+0x5f0>
    1414:	2a1f03f6 	mov	w22, wzr
    1418:	295b5ea8 	ldp	w8, w23, [x21,#216]
    141c:	6b170108 	subs	w8, w8, w23
    1420:	1a9f27e9 	cset	w9, cc
    1424:	0b092514 	add	w20, w8, w9, lsl #9
    1428:	7100069f 	cmp	w20, #0x1
    142c:	5400114b 	b.lt	1654 <stmmac_poll+0x82c>
    1430:	b980e2b8 	ldrsw	x24, [x21,#224]
    1434:	f2a0001b 	movk	x27, #0x0, lsl #16
    1438:	f2c0001b 	movk	x27, #0x0, lsl #32
    143c:	f2e0001b 	movk	x27, #0x0, lsl #48
    1440:	11000b19 	add	w25, w24, #0x2
    1444:	b948b6a8 	ldr	w8, [x21,#2228]
    1448:	340000a8 	cbz	w8, 145c <stmmac_poll+0x634>
    144c:	f94066a8 	ldr	x8, [x21,#200]
    1450:	2a1703fc 	mov	w28, w23
    1454:	8b1c1513 	add	x19, x8, x28, lsl #5
    1458:	14000004 	b	1468 <stmmac_poll+0x640>
    145c:	f94062a8 	ldr	x8, [x21,#192]
    1460:	2a1703fc 	mov	w28, w23
    1464:	8b375113 	add	x19, x8, w23, uxtw #4
    1468:	f9406aa8 	ldr	x8, [x21,#208]
    146c:	f87c7908 	ldr	x8, [x8,x28,lsl #3]
    1470:	b5000968 	cbnz	x8, 159c <stmmac_poll+0x774>
    1474:	f9410aa0 	ldr	x0, [x21,#528]
    1478:	52800402 	mov	w2, #0x20                  	// #32
    147c:	72a04102 	movk	w2, #0x208, lsl #16
    1480:	2a1903e1 	mov	w1, w25
    1484:	94000000 	bl	0 <__netdev_alloc_skb>
    1488:	b4000be0 	cbz	x0, 1604 <stmmac_poll+0x7dc>
    148c:	f940c808 	ldr	x8, [x0,#400]
    1490:	b9416009 	ldr	w9, [x0,#352]
    1494:	aa0003fa 	mov	x26, x0
    1498:	91000908 	add	x8, x8, #0x2
    149c:	11000929 	add	w9, w9, #0x2
    14a0:	f900c808 	str	x8, [x0,#400]
    14a4:	b9016009 	str	w9, [x0,#352]
    14a8:	f9406aa8 	ldr	x8, [x21,#208]
    14ac:	f83c7900 	str	x0, [x8,x28,lsl #3]
    14b0:	f9410ea0 	ldr	x0, [x21,#536]
    14b4:	f940cb48 	ldr	x8, [x26,#400]
    14b8:	b4000060 	cbz	x0, 14c4 <stmmac_poll+0x69c>
    14bc:	f9412409 	ldr	x9, [x0,#584]
    14c0:	b5000049 	cbnz	x9, 14c8 <stmmac_poll+0x6a0>
    14c4:	aa1b03e9 	mov	x9, x27
    14c8:	f9401129 	ldr	x9, [x9,#32]
    14cc:	d346fd0a 	lsr	x10, x8, #6
    14d0:	d2dff7eb 	mov	x11, #0xffbf00000000        	// #281195803836416
    14d4:	927a654a 	and	x10, x10, #0xffffffc0
    14d8:	f2ffffeb 	movk	x11, #0xffff, lsl #48
    14dc:	aa0b0141 	orr	x1, x10, x11
    14e0:	92402d02 	and	x2, x8, #0xfff
    14e4:	52800044 	mov	w4, #0x2                   	// #2
    14e8:	aa1803e3 	mov	x3, x24
    14ec:	aa1f03e5 	mov	x5, xzr
    14f0:	d63f0120 	blr	x9
    14f4:	f9407ea8 	ldr	x8, [x21,#248]
    14f8:	d37df389 	lsl	x9, x28, #3
    14fc:	f8296900 	str	x0, [x8,x9]
    1500:	f9407ea8 	ldr	x8, [x21,#248]
    1504:	f9410ea0 	ldr	x0, [x21,#536]
    1508:	f8696901 	ldr	x1, [x8,x9]
    150c:	b40001a0 	cbz	x0, 1540 <stmmac_poll+0x718>
    1510:	f9412408 	ldr	x8, [x0,#584]
    1514:	b4000168 	cbz	x8, 1540 <stmmac_poll+0x718>
    1518:	f9403908 	ldr	x8, [x8,#112]
    151c:	b4000188 	cbz	x8, 154c <stmmac_poll+0x724>
    1520:	b4000060 	cbz	x0, 152c <stmmac_poll+0x704>
    1524:	f9412408 	ldr	x8, [x0,#584]
    1528:	b5000048 	cbnz	x8, 1530 <stmmac_poll+0x708>
    152c:	aa1b03e8 	mov	x8, x27
    1530:	f9403908 	ldr	x8, [x8,#112]
    1534:	d63f0100 	blr	x8
    1538:	34000100 	cbz	w0, 1558 <stmmac_poll+0x730>
    153c:	1400003e 	b	1634 <stmmac_poll+0x80c>
    1540:	aa1b03e8 	mov	x8, x27
    1544:	f9403908 	ldr	x8, [x8,#112]
    1548:	b5fffec8 	cbnz	x8, 1520 <stmmac_poll+0x6f8>
    154c:	b100043f 	cmn	x1, #0x1
    1550:	1a9f17e0 	cset	w0, eq
    1554:	35000700 	cbnz	w0, 1634 <stmmac_poll+0x80c>
    1558:	f9407ea8 	ldr	x8, [x21,#248]
    155c:	b94826a9 	ldr	w9, [x21,#2084]
    1560:	f87c7908 	ldr	x8, [x8,x28,lsl #3]
    1564:	7101013f 	cmp	w9, #0x40
    1568:	540003aa 	b.ge	15dc <stmmac_poll+0x7b4>
    156c:	b9000a68 	str	w8, [x19,#8]
    1570:	f94112a8 	ldr	x8, [x21,#544]
    1574:	f9400d08 	ldr	x8, [x8,#24]
    1578:	f9401508 	ldr	x8, [x8,#40]
    157c:	b4000088 	cbz	x8, 158c <stmmac_poll+0x764>
    1580:	aa1503e0 	mov	x0, x21
    1584:	aa1303e1 	mov	x1, x19
    1588:	d63f0100 	blr	x8
    158c:	b940eaa8 	ldr	w8, [x21,#232]
    1590:	34000068 	cbz	w8, 159c <stmmac_poll+0x774>
    1594:	51000508 	sub	w8, w8, #0x1
    1598:	b900eaa8 	str	w8, [x21,#232]
    159c:	d5033e9f 	dsb	st
    15a0:	f94112a8 	ldr	x8, [x21,#544]
    15a4:	b94826a9 	ldr	w9, [x21,#2084]
    15a8:	51000694 	sub	w20, w20, #0x1
    15ac:	f9400508 	ldr	x8, [x8,#8]
    15b0:	7101013f 	cmp	w9, #0x40
    15b4:	5400018a 	b.ge	15e4 <stmmac_poll+0x7bc>
    15b8:	f9402d08 	ldr	x8, [x8,#88]
    15bc:	aa1303e0 	mov	x0, x19
    15c0:	d63f0100 	blr	x8
    15c4:	d5033e9f 	dsb	st
    15c8:	110006e8 	add	w8, w23, #0x1
    15cc:	7100029f 	cmp	w20, #0x0
    15d0:	12002117 	and	w23, w8, #0x1ff
    15d4:	54fff38c 	b.gt	1444 <stmmac_poll+0x61c>
    15d8:	1400001f 	b	1654 <stmmac_poll+0x82c>
    15dc:	29007e68 	stp	w8, wzr, [x19]
    15e0:	17ffffe4 	b	1570 <stmmac_poll+0x748>
    15e4:	f9400108 	ldr	x8, [x8]
    15e8:	b9494aa1 	ldr	w1, [x21,#2376]
    15ec:	b940e2a4 	ldr	w4, [x21,#224]
    15f0:	aa1303e0 	mov	x0, x19
    15f4:	2a1f03e2 	mov	w2, wzr
    15f8:	2a1f03e3 	mov	w3, wzr
    15fc:	d63f0100 	blr	x8
    1600:	17fffff1 	b	15c4 <stmmac_poll+0x79c>
    1604:	52801008 	mov	w8, #0x80                  	// #128
    1608:	b900eaa8 	str	w8, [x21,#232]
    160c:	94000000 	bl	0 <net_ratelimit>
    1610:	34000220 	cbz	w0, 1654 <stmmac_poll+0x82c>
    1614:	f9410ea0 	ldr	x0, [x21,#536]
    1618:	d2800001 	mov	x1, #0x0                   	// #0
    161c:	f2a00001 	movk	x1, #0x0, lsl #16
    1620:	f2c00001 	movk	x1, #0x0, lsl #32
    1624:	f2e00001 	movk	x1, #0x0, lsl #48
    1628:	2a1703e2 	mov	w2, w23
    162c:	94000000 	bl	0 <dev_err>
    1630:	14000009 	b	1654 <stmmac_poll+0x82c>
    1634:	f9410ea0 	ldr	x0, [x21,#536]
    1638:	d2800001 	mov	x1, #0x0                   	// #0
    163c:	f2a00001 	movk	x1, #0x0, lsl #16
    1640:	f2c00001 	movk	x1, #0x0, lsl #32
    1644:	f2e00001 	movk	x1, #0x0, lsl #48
    1648:	94000000 	bl	0 <dev_err>
    164c:	aa1a03e0 	mov	x0, x26
    1650:	94000000 	bl	0 <consume_skb>
    1654:	f9421ea8 	ldr	x8, [x21,#1080]
    1658:	b9402fe9 	ldr	w9, [sp,#44]
    165c:	b900deb7 	str	w23, [x21,#220]
    1660:	8b364108 	add	x8, x8, w22, uxtw
    1664:	6b0902df 	cmp	w22, w9
    1668:	f9021ea8 	str	x8, [x21,#1080]
    166c:	5400014a 	b.ge	1694 <stmmac_poll+0x86c>
    1670:	f9400bf3 	ldr	x19, [sp,#16]
    1674:	2a1f03e1 	mov	w1, wzr
    1678:	aa1303e0 	mov	x0, x19
    167c:	94000000 	bl	0 <napi_complete_done>
    1680:	f9407268 	ldr	x8, [x19,#224]
    1684:	f9406660 	ldr	x0, [x19,#200]
    1688:	f9400908 	ldr	x8, [x8,#16]
    168c:	f9401d08 	ldr	x8, [x8,#56]
    1690:	d63f0100 	blr	x8
    1694:	2a1603e0 	mov	w0, w22
    1698:	a9487bfd 	ldp	x29, x30, [sp,#128]
    169c:	a9474ff4 	ldp	x20, x19, [sp,#112]
    16a0:	a94657f6 	ldp	x22, x21, [sp,#96]
    16a4:	a9455ff8 	ldp	x24, x23, [sp,#80]
    16a8:	a94467fa 	ldp	x26, x25, [sp,#64]
    16ac:	a9436ffc 	ldp	x28, x27, [sp,#48]
    16b0:	910243ff 	add	sp, sp, #0x90
    16b4:	d65f03c0 	ret

00000000000016b8 <stmmac_dvr_remove>:
    16b8:	a9be4ff4 	stp	x20, x19, [sp,#-32]!
    16bc:	a9017bfd 	stp	x29, x30, [sp,#16]
    16c0:	910043fd 	add	x29, sp, #0x10
    16c4:	aa0003f3 	mov	x19, x0
    16c8:	94000000 	bl	0 <_mcount>
    16cc:	d2800000 	mov	x0, #0x0                   	// #0
    16d0:	d2800001 	mov	x1, #0x0                   	// #0
    16d4:	f9405273 	ldr	x19, [x19,#160]
    16d8:	f2a00000 	movk	x0, #0x0, lsl #16
    16dc:	f2a00001 	movk	x1, #0x0, lsl #16
    16e0:	f2c00000 	movk	x0, #0x0, lsl #32
    16e4:	f2c00001 	movk	x1, #0x0, lsl #32
    16e8:	f2e00000 	movk	x0, #0x0, lsl #48
    16ec:	f2e00001 	movk	x1, #0x0, lsl #48
    16f0:	94000000 	bl	0 <printk>
    16f4:	f9459268 	ldr	x8, [x19,#2848]
    16f8:	f9458660 	ldr	x0, [x19,#2824]
    16fc:	f9400908 	ldr	x8, [x8,#16]
    1700:	f9403108 	ldr	x8, [x8,#96]
    1704:	d63f0100 	blr	x8
    1708:	f9459268 	ldr	x8, [x19,#2848]
    170c:	f9458660 	ldr	x0, [x19,#2824]
    1710:	f9400908 	ldr	x8, [x8,#16]
    1714:	f9402908 	ldr	x8, [x8,#80]
    1718:	d63f0100 	blr	x8
    171c:	f9458660 	ldr	x0, [x19,#2824]
    1720:	2a1f03e1 	mov	w1, wzr
    1724:	94000000 	bl	83d8 <stmmac_set_mac>
    1728:	aa1303e0 	mov	x0, x19
    172c:	94000000 	bl	0 <netif_carrier_off>
    1730:	aa1303e0 	mov	x0, x19
    1734:	94000000 	bl	0 <unregister_netdev>
    1738:	f948a660 	ldr	x0, [x19,#4424]
    173c:	b4000040 	cbz	x0, 1744 <stmmac_dvr_remove+0x8c>
    1740:	94000000 	bl	0 <reset_control_assert>
    1744:	f948a274 	ldr	x20, [x19,#4416]
    1748:	aa1403e0 	mov	x0, x20
    174c:	94000000 	bl	0 <clk_disable>
    1750:	aa1403e0 	mov	x0, x20
    1754:	94000000 	bl	0 <clk_unprepare>
    1758:	f9489e74 	ldr	x20, [x19,#4408]
    175c:	aa1403e0 	mov	x0, x20
    1760:	94000000 	bl	0 <clk_disable>
    1764:	aa1403e0 	mov	x0, x20
    1768:	94000000 	bl	0 <clk_unprepare>
    176c:	f9459268 	ldr	x8, [x19,#2848]
    1770:	b9405908 	ldr	w8, [x8,#88]
    1774:	7100211f 	cmp	w8, #0x8
    1778:	540000c8 	b.hi	1790 <stmmac_dvr_remove+0xd8>
    177c:	52800029 	mov	w9, #0x1                   	// #1
    1780:	1ac82128 	lsl	w8, w9, w8
    1784:	52802249 	mov	w9, #0x112                 	// #274
    1788:	6a09011f 	tst	w8, w9
    178c:	54000061 	b.ne	1798 <stmmac_dvr_remove+0xe0>
    1790:	aa1303e0 	mov	x0, x19
    1794:	94000000 	bl	73a4 <stmmac_mdio_unregister>
    1798:	aa1303e0 	mov	x0, x19
    179c:	94000000 	bl	0 <free_netdev>
    17a0:	a9417bfd 	ldp	x29, x30, [sp,#16]
    17a4:	2a1f03e0 	mov	w0, wzr
    17a8:	a8c24ff4 	ldp	x20, x19, [sp],#32
    17ac:	d65f03c0 	ret

00000000000017b0 <stmmac_suspend>:
    17b0:	f81d0ff5 	str	x21, [sp,#-48]!
    17b4:	a9014ff4 	stp	x20, x19, [sp,#16]
    17b8:	a9027bfd 	stp	x29, x30, [sp,#32]
    17bc:	910083fd 	add	x29, sp, #0x20
    17c0:	aa0003f3 	mov	x19, x0
    17c4:	94000000 	bl	0 <_mcount>
    17c8:	f9405273 	ldr	x19, [x19,#160]
    17cc:	b4000813 	cbz	x19, 18cc <stmmac_suspend+0x11c>
    17d0:	f9402668 	ldr	x8, [x19,#72]
    17d4:	360007c8 	tbz	w8, #0, 18cc <stmmac_suspend+0x11c>
    17d8:	f945a260 	ldr	x0, [x19,#2880]
    17dc:	b4000040 	cbz	x0, 17e4 <stmmac_suspend+0x34>
    17e0:	94000000 	bl	0 <phy_stop>
    17e4:	912ca274 	add	x20, x19, #0xb28
    17e8:	aa1403e0 	mov	x0, x20
    17ec:	94000000 	bl	0 <_raw_spin_lock_irqsave>
    17f0:	aa0003f5 	mov	x21, x0
    17f4:	aa1303e0 	mov	x0, x19
    17f8:	94000000 	bl	0 <netif_device_detach>
    17fc:	f941e268 	ldr	x8, [x19,#960]
    1800:	2a1f03e0 	mov	w0, wzr
    1804:	91024101 	add	x1, x8, #0x90
    1808:	94000000 	bl	0 <set_bit>
    180c:	aa1403e0 	mov	x0, x20
    1810:	aa1503e1 	mov	x1, x21
    1814:	94000000 	bl	0 <_raw_spin_unlock_irqrestore>
    1818:	91290260 	add	x0, x19, #0xa40
    181c:	94000000 	bl	0 <napi_disable>
    1820:	aa1403e0 	mov	x0, x20
    1824:	94000000 	bl	0 <_raw_spin_lock_irqsave>
    1828:	f9459268 	ldr	x8, [x19,#2848]
    182c:	aa0003f5 	mov	x21, x0
    1830:	f9400908 	ldr	x8, [x8,#16]
    1834:	f9402909 	ldr	x9, [x8,#80]
    1838:	f9458668 	ldr	x8, [x19,#2824]
    183c:	aa0803e0 	mov	x0, x8
    1840:	d63f0120 	blr	x9
    1844:	f9459268 	ldr	x8, [x19,#2848]
    1848:	f9458660 	ldr	x0, [x19,#2824]
    184c:	f9400908 	ldr	x8, [x8,#16]
    1850:	f9403108 	ldr	x8, [x8,#96]
    1854:	d63f0100 	blr	x8
    1858:	f9458e68 	ldr	x8, [x19,#2840]
    185c:	3942b109 	ldrb	w9, [x8,#172]
    1860:	36000169 	tbz	w9, #0, 188c <stmmac_suspend+0xdc>
    1864:	f9407508 	ldr	x8, [x8,#232]
    1868:	b4000128 	cbz	x8, 188c <stmmac_suspend+0xdc>
    186c:	f9459260 	ldr	x0, [x19,#2848]
    1870:	52800401 	mov	w1, #0x20                  	// #32
    1874:	f9400008 	ldr	x8, [x0]
    1878:	f9401908 	ldr	x8, [x8,#48]
    187c:	d63f0100 	blr	x8
    1880:	52800028 	mov	w8, #0x1                   	// #1
    1884:	b9124e68 	str	w8, [x19,#4684]
    1888:	1400000a 	b	18b0 <stmmac_suspend+0x100>
    188c:	f9458660 	ldr	x0, [x19,#2824]
    1890:	2a1f03e1 	mov	w1, wzr
    1894:	94000000 	bl	83d8 <stmmac_set_mac>
    1898:	f9458e60 	ldr	x0, [x19,#2840]
    189c:	94000000 	bl	0 <pinctrl_pm_select_sleep_state>
    18a0:	f948a260 	ldr	x0, [x19,#4416]
    18a4:	94000000 	bl	0 <clk_disable>
    18a8:	f9489e60 	ldr	x0, [x19,#4408]
    18ac:	94000000 	bl	0 <clk_disable>
    18b0:	aa1403e0 	mov	x0, x20
    18b4:	aa1503e1 	mov	x1, x21
    18b8:	94000000 	bl	0 <_raw_spin_unlock_irqrestore>
    18bc:	6f00e400 	movi	v0.2d, #0x0
    18c0:	12800008 	mov	w8, #0xffffffff            	// #-1
    18c4:	fd05a660 	str	d0, [x19,#2888]
    18c8:	b90b5268 	str	w8, [x19,#2896]
    18cc:	a9427bfd 	ldp	x29, x30, [sp,#32]
    18d0:	a9414ff4 	ldp	x20, x19, [sp,#16]
    18d4:	2a1f03e0 	mov	w0, wzr
    18d8:	f84307f5 	ldr	x21, [sp],#48
    18dc:	d65f03c0 	ret

00000000000018e0 <stmmac_resume>:
    18e0:	a9bc5ff8 	stp	x24, x23, [sp,#-64]!
    18e4:	a90157f6 	stp	x22, x21, [sp,#16]
    18e8:	a9024ff4 	stp	x20, x19, [sp,#32]
    18ec:	a9037bfd 	stp	x29, x30, [sp,#48]
    18f0:	9100c3fd 	add	x29, sp, #0x30
    18f4:	aa0003f3 	mov	x19, x0
    18f8:	94000000 	bl	0 <_mcount>
    18fc:	f9405273 	ldr	x19, [x19,#160]
    1900:	f9402668 	ldr	x8, [x19,#72]
    1904:	36000d48 	tbz	w8, #0, 1aac <stmmac_resume+0x1cc>
    1908:	f9458e60 	ldr	x0, [x19,#2840]
    190c:	91240274 	add	x20, x19, #0x900
    1910:	3942b008 	ldrb	w8, [x0,#172]
    1914:	36000248 	tbz	w8, #0, 195c <stmmac_resume+0x7c>
    1918:	f9407408 	ldr	x8, [x0,#232]
    191c:	b4000208 	cbz	x8, 195c <stmmac_resume+0x7c>
    1920:	912ca275 	add	x21, x19, #0xb28
    1924:	aa1503e0 	mov	x0, x21
    1928:	94000000 	bl	0 <_raw_spin_lock_irqsave>
    192c:	f9459268 	ldr	x8, [x19,#2848]
    1930:	aa0003f6 	mov	x22, x0
    1934:	aa1f03e1 	mov	x1, xzr
    1938:	f9400109 	ldr	x9, [x8]
    193c:	aa0803e0 	mov	x0, x8
    1940:	f9401929 	ldr	x9, [x9,#48]
    1944:	d63f0120 	blr	x9
    1948:	aa1503e0 	mov	x0, x21
    194c:	aa1603e1 	mov	x1, x22
    1950:	94000000 	bl	0 <_raw_spin_unlock_irqrestore>
    1954:	b9124e7f 	str	wzr, [x19,#4684]
    1958:	14000009 	b	197c <stmmac_resume+0x9c>
    195c:	94000000 	bl	0 <pinctrl_pm_select_default_state>
    1960:	f9489e60 	ldr	x0, [x19,#4408]
    1964:	94000000 	bl	0 <clk_enable>
    1968:	f948a260 	ldr	x0, [x19,#4416]
    196c:	94000000 	bl	0 <clk_enable>
    1970:	f945b260 	ldr	x0, [x19,#2912]
    1974:	b4000040 	cbz	x0, 197c <stmmac_resume+0x9c>
    1978:	94000000 	bl	6a90 <stmmac_mdio_reset>
    197c:	aa1303e0 	mov	x0, x19
    1980:	94000000 	bl	0 <netif_device_attach>
    1984:	912ca275 	add	x21, x19, #0xb28
    1988:	aa1503e0 	mov	x0, x21
    198c:	94000000 	bl	0 <_raw_spin_lock_irqsave>
    1990:	aa0003f6 	mov	x22, x0
    1994:	6f00e400 	movi	v0.2d, #0x0
    1998:	aa1403e0 	mov	x0, x20
    199c:	fd04ee60 	str	d0, [x19,#2520]
    19a0:	fd048e60 	str	d0, [x19,#2328]
    19a4:	b912727f 	str	wzr, [x19,#4720]
    19a8:	94000049 	bl	1acc <stmmac_clear_descriptors>
    19ac:	aa1503e0 	mov	x0, x21
    19b0:	aa1603e1 	mov	x1, x22
    19b4:	94000000 	bl	0 <_raw_spin_unlock_irqrestore>
    19b8:	aa1303e0 	mov	x0, x19
    19bc:	2a1f03e1 	mov	w1, wzr
    19c0:	94000079 	bl	1ba4 <stmmac_hw_setup>
    19c4:	aa1503e0 	mov	x0, x21
    19c8:	94000000 	bl	0 <_raw_spin_lock_irqsave>
    19cc:	d2800008 	mov	x8, #0x0                   	// #0
    19d0:	f2a00008 	movk	x8, #0x0, lsl #16
    19d4:	f2c00008 	movk	x8, #0x0, lsl #32
    19d8:	f2e00008 	movk	x8, #0x0, lsl #48
    19dc:	fd400100 	ldr	d0, [x8]
    19e0:	91254277 	add	x23, x19, #0x950
    19e4:	aa0003f6 	mov	x22, x0
    19e8:	91249268 	add	x8, x19, #0x924
    19ec:	aa1703e0 	mov	x0, x23
    19f0:	2a1f03e1 	mov	w1, wzr
    19f4:	aa1f03e2 	mov	x2, xzr
    19f8:	aa1f03e3 	mov	x3, xzr
    19fc:	fd000100 	str	d0, [x8]
    1a00:	94000000 	bl	0 <init_timer_key>
    1a04:	d2800008 	mov	x8, #0x0                   	// #0
    1a08:	f2a00008 	movk	x8, #0x0, lsl #16
    1a0c:	f2c00008 	movk	x8, #0x0, lsl #32
    1a10:	f2e00008 	movk	x8, #0x0, lsl #48
    1a14:	f9400118 	ldr	x24, [x8]
    1a18:	b9492a60 	ldr	w0, [x19,#2344]
    1a1c:	94000000 	bl	0 <__usecs_to_jiffies>
    1a20:	d2800009 	mov	x9, #0x0                   	// #0
    1a24:	f2a00009 	movk	x9, #0x0, lsl #16
    1a28:	f2c00009 	movk	x9, #0x0, lsl #32
    1a2c:	8b180008 	add	x8, x0, x24
    1a30:	f2e00009 	movk	x9, #0x0, lsl #48
    1a34:	aa1703e0 	mov	x0, x23
    1a38:	f904ba74 	str	x20, [x19,#2416]
    1a3c:	f904b268 	str	x8, [x19,#2400]
    1a40:	f904b669 	str	x9, [x19,#2408]
    1a44:	94000000 	bl	0 <add_timer>
    1a48:	f9459260 	ldr	x0, [x19,#2848]
    1a4c:	aa1303e1 	mov	x1, x19
    1a50:	f9400008 	ldr	x8, [x0]
    1a54:	f9401108 	ldr	x8, [x8,#32]
    1a58:	d63f0100 	blr	x8
    1a5c:	f9452a68 	ldr	x8, [x19,#2640]
    1a60:	36000328 	tbz	w8, #0, 1ac4 <stmmac_resume+0x1e4>
    1a64:	d5033bbf 	dmb	ish
    1a68:	91294274 	add	x20, x19, #0xa50
    1a6c:	2a1f03e0 	mov	w0, wzr
    1a70:	aa1403e1 	mov	x1, x20
    1a74:	94000000 	bl	0 <clear_bit>
    1a78:	52800040 	mov	w0, #0x2                   	// #2
    1a7c:	aa1403e1 	mov	x1, x20
    1a80:	94000000 	bl	0 <clear_bit>
    1a84:	f941e268 	ldr	x8, [x19,#960]
    1a88:	2a1f03e0 	mov	w0, wzr
    1a8c:	91024101 	add	x1, x8, #0x90
    1a90:	94000000 	bl	0 <clear_bit>
    1a94:	aa1503e0 	mov	x0, x21
    1a98:	aa1603e1 	mov	x1, x22
    1a9c:	94000000 	bl	0 <_raw_spin_unlock_irqrestore>
    1aa0:	f945a260 	ldr	x0, [x19,#2880]
    1aa4:	b4000040 	cbz	x0, 1aac <stmmac_resume+0x1cc>
    1aa8:	94000000 	bl	0 <phy_start>
    1aac:	a9437bfd 	ldp	x29, x30, [sp,#48]
    1ab0:	a9424ff4 	ldp	x20, x19, [sp,#32]
    1ab4:	a94157f6 	ldp	x22, x21, [sp,#16]
    1ab8:	2a1f03e0 	mov	w0, wzr
    1abc:	a8c45ff8 	ldp	x24, x23, [sp],#64
    1ac0:	d65f03c0 	ret
    1ac4:	d4210000 	brk	#0x800
    1ac8:	14000000 	b	1ac8 <stmmac_resume+0x1e8>

0000000000001acc <stmmac_clear_descriptors>:
    1acc:	f81d0ff5 	str	x21, [sp,#-48]!
    1ad0:	a9014ff4 	stp	x20, x19, [sp,#16]
    1ad4:	a9027bfd 	stp	x29, x30, [sp,#32]
    1ad8:	910083fd 	add	x29, sp, #0x20
    1adc:	aa0003f3 	mov	x19, x0
    1ae0:	94000000 	bl	0 <_mcount>
    1ae4:	aa1f03f4 	mov	x20, xzr
    1ae8:	9287fff5 	mov	x21, #0xffffffffffffc000    	// #-16384
    1aec:	1400000c 	b	1b1c <stmmac_clear_descriptors+0x50>
    1af0:	f9406269 	ldr	x9, [x19,#192]
    1af4:	8b141120 	add	x0, x9, x20, lsl #4
    1af8:	b9494a61 	ldr	w1, [x19,#2376]
    1afc:	b948b262 	ldr	w2, [x19,#2224]
    1b00:	b940e264 	ldr	w4, [x19,#224]
    1b04:	b10082bf 	cmn	x21, #0x20
    1b08:	1a9f17e3 	cset	w3, eq
    1b0c:	d63f0100 	blr	x8
    1b10:	b10082b5 	adds	x21, x21, #0x20
    1b14:	91000694 	add	x20, x20, #0x1
    1b18:	54000140 	b.eq	1b40 <stmmac_clear_descriptors+0x74>
    1b1c:	f9411268 	ldr	x8, [x19,#544]
    1b20:	b948b669 	ldr	w9, [x19,#2228]
    1b24:	f9400508 	ldr	x8, [x8,#8]
    1b28:	f9400108 	ldr	x8, [x8]
    1b2c:	34fffe29 	cbz	w9, 1af0 <stmmac_clear_descriptors+0x24>
    1b30:	f9406669 	ldr	x9, [x19,#200]
    1b34:	8b150129 	add	x9, x9, x21
    1b38:	91401120 	add	x0, x9, #0x4, lsl #12
    1b3c:	17ffffef 	b	1af8 <stmmac_clear_descriptors+0x2c>
    1b40:	aa1f03f4 	mov	x20, xzr
    1b44:	9287fff5 	mov	x21, #0xffffffffffffc000    	// #-16384
    1b48:	1400000a 	b	1b70 <stmmac_clear_descriptors+0xa4>
    1b4c:	f9400669 	ldr	x9, [x19,#8]
    1b50:	8b141120 	add	x0, x9, x20, lsl #4
    1b54:	b948b261 	ldr	w1, [x19,#2224]
    1b58:	b10082bf 	cmn	x21, #0x20
    1b5c:	1a9f17e2 	cset	w2, eq
    1b60:	d63f0100 	blr	x8
    1b64:	b10082b5 	adds	x21, x21, #0x20
    1b68:	91000694 	add	x20, x20, #0x1
    1b6c:	54000140 	b.eq	1b94 <stmmac_clear_descriptors+0xc8>
    1b70:	f9411268 	ldr	x8, [x19,#544]
    1b74:	b948b669 	ldr	w9, [x19,#2228]
    1b78:	f9400508 	ldr	x8, [x8,#8]
    1b7c:	f9400508 	ldr	x8, [x8,#8]
    1b80:	34fffe69 	cbz	w9, 1b4c <stmmac_clear_descriptors+0x80>
    1b84:	f9400269 	ldr	x9, [x19]
    1b88:	8b150129 	add	x9, x9, x21
    1b8c:	91401120 	add	x0, x9, #0x4, lsl #12
    1b90:	17fffff1 	b	1b54 <stmmac_clear_descriptors+0x88>
    1b94:	a9427bfd 	ldp	x29, x30, [sp,#32]
    1b98:	a9414ff4 	ldp	x20, x19, [sp,#16]
    1b9c:	f84307f5 	ldr	x21, [sp],#48
    1ba0:	d65f03c0 	ret

0000000000001ba4 <stmmac_hw_setup>:
    1ba4:	a9bb67fa 	stp	x26, x25, [sp,#-80]!
    1ba8:	a9015ff8 	stp	x24, x23, [sp,#16]
    1bac:	a90257f6 	stp	x22, x21, [sp,#32]
    1bb0:	a9034ff4 	stp	x20, x19, [sp,#48]
    1bb4:	a9047bfd 	stp	x29, x30, [sp,#64]
    1bb8:	910103fd 	add	x29, sp, #0x40
    1bbc:	2a0103f4 	mov	w20, w1
    1bc0:	aa0003f3 	mov	x19, x0
    1bc4:	94000000 	bl	0 <_mcount>
    1bc8:	f947c268 	ldr	x8, [x19,#3968]
    1bcc:	f9401508 	ldr	x8, [x8,#40]
    1bd0:	b4000148 	cbz	x8, 1bf8 <stmmac_hw_setup+0x54>
    1bd4:	29405516 	ldp	w22, w21, [x8]
    1bd8:	b9400917 	ldr	w23, [x8,#8]
    1bdc:	39403118 	ldrb	w24, [x8,#12]
    1be0:	b951b668 	ldr	w8, [x19,#4532]
    1be4:	34000168 	cbz	w8, 1c10 <stmmac_hw_setup+0x6c>
    1be8:	b951b268 	ldr	w8, [x19,#4528]
    1bec:	7100091f 	cmp	w8, #0x2
    1bf0:	1a9f17fa 	cset	w26, eq
    1bf4:	14000008 	b	1c14 <stmmac_hw_setup+0x70>
    1bf8:	2a1f03f5 	mov	w21, wzr
    1bfc:	2a1f03f8 	mov	w24, wzr
    1c00:	2a1f03f7 	mov	w23, wzr
    1c04:	52800116 	mov	w22, #0x8                   	// #8
    1c08:	b951b668 	ldr	w8, [x19,#4532]
    1c0c:	35fffee8 	cbnz	w8, 1be8 <stmmac_hw_setup+0x44>
    1c10:	2a1f03fa 	mov	w26, wzr
    1c14:	f9459268 	ldr	x8, [x19,#2848]
    1c18:	f9458660 	ldr	x0, [x19,#2824]
    1c1c:	f9400908 	ldr	x8, [x8,#16]
    1c20:	f9400108 	ldr	x8, [x8]
    1c24:	d63f0100 	blr	x8
    1c28:	34000260 	cbz	w0, 1c74 <stmmac_hw_setup+0xd0>
    1c2c:	2a0003f9 	mov	w25, w0
    1c30:	f9458e60 	ldr	x0, [x19,#2840]
    1c34:	d2800001 	mov	x1, #0x0                   	// #0
    1c38:	f2a00001 	movk	x1, #0x0, lsl #16
    1c3c:	f2c00001 	movk	x1, #0x0, lsl #32
    1c40:	f2e00001 	movk	x1, #0x0, lsl #48
    1c44:	94000000 	bl	0 <dev_err>
    1c48:	36f806b9 	tbz	w25, #31, 1d1c <stmmac_hw_setup+0x178>
    1c4c:	d2800000 	mov	x0, #0x0                   	// #0
    1c50:	d2800001 	mov	x1, #0x0                   	// #0
    1c54:	f2a00000 	movk	x0, #0x0, lsl #16
    1c58:	f2a00001 	movk	x1, #0x0, lsl #16
    1c5c:	f2c00000 	movk	x0, #0x0, lsl #32
    1c60:	f2c00001 	movk	x1, #0x0, lsl #32
    1c64:	f2e00000 	movk	x0, #0x0, lsl #48
    1c68:	f2e00001 	movk	x1, #0x0, lsl #48
    1c6c:	94000000 	bl	0 <printk>
    1c70:	14000182 	b	2278 <stmmac_hw_setup+0x6d4>
    1c74:	f9459268 	ldr	x8, [x19,#2848]
    1c78:	f9458660 	ldr	x0, [x19,#2824]
    1c7c:	b9493a65 	ldr	w5, [x19,#2360]
    1c80:	b94a0266 	ldr	w6, [x19,#2560]
    1c84:	f9400908 	ldr	x8, [x8,#16]
    1c88:	2a1603e1 	mov	w1, w22
    1c8c:	2a1503e2 	mov	w2, w21
    1c90:	2a1703e3 	mov	w3, w23
    1c94:	f9400508 	ldr	x8, [x8,#8]
    1c98:	2a1803e4 	mov	w4, w24
    1c9c:	2a1a03e7 	mov	w7, w26
    1ca0:	d63f0100 	blr	x8
    1ca4:	b9512668 	ldr	w8, [x19,#4388]
    1ca8:	7101011f 	cmp	w8, #0x40
    1cac:	5400026b 	b.lt	1cf8 <stmmac_hw_setup+0x154>
    1cb0:	b94a0268 	ldr	w8, [x19,#2560]
    1cb4:	f9459269 	ldr	x9, [x19,#2848]
    1cb8:	f9458660 	ldr	x0, [x19,#2824]
    1cbc:	2a1f03e2 	mov	w2, wzr
    1cc0:	11400901 	add	w1, w8, #0x2, lsl #12
    1cc4:	b9126a61 	str	w1, [x19,#4712]
    1cc8:	f9400928 	ldr	x8, [x9,#16]
    1ccc:	f9404908 	ldr	x8, [x8,#144]
    1cd0:	d63f0100 	blr	x8
    1cd4:	b9493a68 	ldr	w8, [x19,#2360]
    1cd8:	f9459269 	ldr	x9, [x19,#2848]
    1cdc:	f9458660 	ldr	x0, [x19,#2824]
    1ce0:	2a1f03e2 	mov	w2, wzr
    1ce4:	11400901 	add	w1, w8, #0x2, lsl #12
    1ce8:	b9126e61 	str	w1, [x19,#4716]
    1cec:	f9400928 	ldr	x8, [x9,#16]
    1cf0:	f9404d08 	ldr	x8, [x8,#152]
    1cf4:	d63f0100 	blr	x8
    1cf8:	f947c268 	ldr	x8, [x19,#3968]
    1cfc:	f9405501 	ldr	x1, [x8,#168]
    1d00:	b40000e1 	cbz	x1, 1d1c <stmmac_hw_setup+0x178>
    1d04:	f9459268 	ldr	x8, [x19,#2848]
    1d08:	f9400908 	ldr	x8, [x8,#16]
    1d0c:	f9400908 	ldr	x8, [x8,#16]
    1d10:	b4000068 	cbz	x8, 1d1c <stmmac_hw_setup+0x178>
    1d14:	f9458660 	ldr	x0, [x19,#2824]
    1d18:	d63f0100 	blr	x8
    1d1c:	f9459260 	ldr	x0, [x19,#2848]
    1d20:	910cb269 	add	x9, x19, #0x32c
    1d24:	f9400121 	ldr	x1, [x9]
    1d28:	2a1f03e2 	mov	w2, wzr
    1d2c:	f9400008 	ldr	x8, [x0]
    1d30:	f9401d08 	ldr	x8, [x8,#56]
    1d34:	d63f0100 	blr	x8
    1d38:	f947c268 	ldr	x8, [x19,#3968]
    1d3c:	f9403d08 	ldr	x8, [x8,#120]
    1d40:	b4000068 	cbz	x8, 1d4c <stmmac_hw_setup+0x1a8>
    1d44:	f9458660 	ldr	x0, [x19,#2824]
    1d48:	d63f0100 	blr	x8
    1d4c:	f9459268 	ldr	x8, [x19,#2848]
    1d50:	b9405909 	ldr	w9, [x8,#88]
    1d54:	34000249 	cbz	w9, 1d9c <stmmac_hw_setup+0x1f8>
    1d58:	f947c269 	ldr	x9, [x19,#3968]
    1d5c:	b940b929 	ldr	w9, [x9,#184]
    1d60:	7100293f 	cmp	w9, #0xa
    1d64:	540001a0 	b.eq	1d98 <stmmac_hw_setup+0x1f4>
    1d68:	7101913f 	cmp	w9, #0x64
    1d6c:	54000160 	b.eq	1d98 <stmmac_hw_setup+0x1f4>
    1d70:	710fa13f 	cmp	w9, #0x3e8
    1d74:	54000120 	b.eq	1d98 <stmmac_hw_setup+0x1f4>
    1d78:	f9458e60 	ldr	x0, [x19,#2840]
    1d7c:	d2800001 	mov	x1, #0x0                   	// #0
    1d80:	f2a00001 	movk	x1, #0x0, lsl #16
    1d84:	f2c00001 	movk	x1, #0x0, lsl #32
    1d88:	f2e00001 	movk	x1, #0x0, lsl #48
    1d8c:	94000000 	bl	0 <dev_warn>
    1d90:	f9459268 	ldr	x8, [x19,#2848]
    1d94:	2a1f03e9 	mov	w9, wzr
    1d98:	b9006109 	str	w9, [x8,#96]
    1d9c:	f9459260 	ldr	x0, [x19,#2848]
    1da0:	b9424a61 	ldr	w1, [x19,#584]
    1da4:	f9400008 	ldr	x8, [x0]
    1da8:	f9400108 	ldr	x8, [x8]
    1dac:	d63f0100 	blr	x8
    1db0:	f9459260 	ldr	x0, [x19,#2848]
    1db4:	f9400008 	ldr	x8, [x0]
    1db8:	f9400508 	ldr	x8, [x8,#8]
    1dbc:	d63f0100 	blr	x8
    1dc0:	35000140 	cbnz	w0, 1de8 <stmmac_hw_setup+0x244>
    1dc4:	d2800000 	mov	x0, #0x0                   	// #0
    1dc8:	f2a00000 	movk	x0, #0x0, lsl #16
    1dcc:	f2c00000 	movk	x0, #0x0, lsl #32
    1dd0:	f2e00000 	movk	x0, #0x0, lsl #48
    1dd4:	94000000 	bl	0 <printk>
    1dd8:	f947c268 	ldr	x8, [x19,#3968]
    1ddc:	b900411f 	str	wzr, [x8,#64]
    1de0:	f9459268 	ldr	x8, [x19,#2848]
    1de4:	b900551f 	str	wzr, [x8,#84]
    1de8:	b9512668 	ldr	w8, [x19,#4388]
    1dec:	f9458660 	ldr	x0, [x19,#2824]
    1df0:	52800021 	mov	w1, #0x1                   	// #1
    1df4:	7101011f 	cmp	w8, #0x40
    1df8:	5400006b 	b.lt	1e04 <stmmac_hw_setup+0x260>
    1dfc:	94000000 	bl	d94c <stmmac_dwmac4_set_mac>
    1e00:	14000002 	b	1e08 <stmmac_hw_setup+0x264>
    1e04:	94000000 	bl	83d8 <stmmac_set_mac>
    1e08:	f947c268 	ldr	x8, [x19,#3968]
    1e0c:	b9405109 	ldr	w9, [x8,#80]
    1e10:	b9406d03 	ldr	w3, [x8,#108]
    1e14:	340001a9 	cbz	w9, 1e48 <stmmac_hw_setup+0x2a4>
    1e18:	f9459268 	ldr	x8, [x19,#2848]
    1e1c:	d2800009 	mov	x9, #0x0                   	// #0
    1e20:	f2a00009 	movk	x9, #0x0, lsl #16
    1e24:	f2c00009 	movk	x9, #0x0, lsl #32
    1e28:	f9400908 	ldr	x8, [x8,#16]
    1e2c:	f2e00009 	movk	x9, #0x0, lsl #48
    1e30:	b9400121 	ldr	w1, [x9]
    1e34:	f9458660 	ldr	x0, [x19,#2824]
    1e38:	f9401108 	ldr	x8, [x8,#32]
    1e3c:	2a0103e2 	mov	w2, w1
    1e40:	d63f0100 	blr	x8
    1e44:	1400000e 	b	1e7c <stmmac_hw_setup+0x2d8>
    1e48:	b9404d09 	ldr	w9, [x8,#76]
    1e4c:	35000069 	cbnz	w9, 1e58 <stmmac_hw_setup+0x2b4>
    1e50:	b9403d08 	ldr	w8, [x8,#60]
    1e54:	340022e8 	cbz	w8, 22b0 <stmmac_hw_setup+0x70c>
    1e58:	f9459268 	ldr	x8, [x19,#2848]
    1e5c:	f9458660 	ldr	x0, [x19,#2824]
    1e60:	52800021 	mov	w1, #0x1                   	// #1
    1e64:	52800022 	mov	w2, #0x1                   	// #1
    1e68:	f9400908 	ldr	x8, [x8,#16]
    1e6c:	52800035 	mov	w21, #0x1                   	// #1
    1e70:	f9401108 	ldr	x8, [x8,#32]
    1e74:	d63f0100 	blr	x8
    1e78:	f9069675 	str	x21, [x19,#3368]
    1e7c:	b9512668 	ldr	w8, [x19,#4388]
    1e80:	f9458669 	ldr	x9, [x19,#2824]
    1e84:	5280e00a 	mov	w10, #0x700                 	// #1792
    1e88:	5281600b 	mov	w11, #0xb00                 	// #2816
    1e8c:	5280200c 	mov	w12, #0x100                 	// #256
    1e90:	7100fd1f 	cmp	w8, #0x3f
    1e94:	9a8ac168 	csel	x8, x11, x10, gt
    1e98:	9a8cc14a 	csel	x10, x10, x12, gt
    1e9c:	8b080128 	add	x8, x9, x8
    1ea0:	8b0a0120 	add	x0, x9, x10
    1ea4:	f9093268 	str	x8, [x19,#4704]
    1ea8:	f9092e60 	str	x0, [x19,#4696]
    1eac:	94000000 	bl	b2e8 <dwmac_mmc_intr_all_mask>
    1eb0:	b94fae68 	ldr	w8, [x19,#4012]
    1eb4:	34000488 	cbz	w8, 1f44 <stmmac_hw_setup+0x3a0>
    1eb8:	f9492e60 	ldr	x0, [x19,#4696]
    1ebc:	528006a1 	mov	w1, #0x35                  	// #53
    1ec0:	94000000 	bl	b2ac <dwmac_mmc_ctrl>
    1ec4:	913f9268 	add	x8, x19, #0xfe4
    1ec8:	6f00e400 	movi	v0.2d, #0x0
    1ecc:	3d844660 	str	q0, [x19,#4368]
    1ed0:	ad088100 	stp	q0, q0, [x8,#272]
    1ed4:	ad078100 	stp	q0, q0, [x8,#240]
    1ed8:	ad068100 	stp	q0, q0, [x8,#208]
    1edc:	ad058100 	stp	q0, q0, [x8,#176]
    1ee0:	ad048100 	stp	q0, q0, [x8,#144]
    1ee4:	ad038100 	stp	q0, q0, [x8,#112]
    1ee8:	ad028100 	stp	q0, q0, [x8,#80]
    1eec:	ad018100 	stp	q0, q0, [x8,#48]
    1ef0:	ad008100 	stp	q0, q0, [x8,#16]
    1ef4:	3d800100 	str	q0, [x8]
    1ef8:	36000994 	tbz	w20, #0, 2028 <stmmac_hw_setup+0x484>
    1efc:	b94fb268 	ldr	w8, [x19,#4016]
    1f00:	35000068 	cbnz	w8, 1f0c <stmmac_hw_setup+0x368>
    1f04:	b94fb668 	ldr	w8, [x19,#4020]
    1f08:	34001c68 	cbz	w8, 2294 <stmmac_hw_setup+0x6f0>
    1f0c:	f9458e60 	ldr	x0, [x19,#2840]
    1f10:	d2800001 	mov	x1, #0x0                   	// #0
    1f14:	f2a00001 	movk	x1, #0x0, lsl #16
    1f18:	f2c00001 	movk	x1, #0x0, lsl #32
    1f1c:	f2e00001 	movk	x1, #0x0, lsl #48
    1f20:	94000000 	bl	0 <devm_clk_get>
    1f24:	b13ffc1f 	cmn	x0, #0xfff
    1f28:	f9091e60 	str	x0, [x19,#4664]
    1f2c:	540001a3 	b.cc	1f60 <stmmac_hw_setup+0x3bc>
    1f30:	f9489e60 	ldr	x0, [x19,#4408]
    1f34:	94000000 	bl	0 <clk_get_rate>
    1f38:	b9124260 	str	w0, [x19,#4672]
    1f3c:	f9091e7f 	str	xzr, [x19,#4664]
    1f40:	14000013 	b	1f8c <stmmac_hw_setup+0x3e8>
    1f44:	d2800000 	mov	x0, #0x0                   	// #0
    1f48:	f2a00000 	movk	x0, #0x0, lsl #16
    1f4c:	f2c00000 	movk	x0, #0x0, lsl #32
    1f50:	f2e00000 	movk	x0, #0x0, lsl #48
    1f54:	94000000 	bl	0 <printk>
    1f58:	3707fd34 	tbnz	w20, #0, 1efc <stmmac_hw_setup+0x358>
    1f5c:	14000033 	b	2028 <stmmac_hw_setup+0x484>
    1f60:	aa0003f4 	mov	x20, x0
    1f64:	94000000 	bl	0 <clk_prepare>
    1f68:	350000c0 	cbnz	w0, 1f80 <stmmac_hw_setup+0x3dc>
    1f6c:	aa1403e0 	mov	x0, x20
    1f70:	94000000 	bl	0 <clk_enable>
    1f74:	34000060 	cbz	w0, 1f80 <stmmac_hw_setup+0x3dc>
    1f78:	aa1403e0 	mov	x0, x20
    1f7c:	94000000 	bl	0 <clk_unprepare>
    1f80:	f9491e60 	ldr	x0, [x19,#4664]
    1f84:	94000000 	bl	0 <clk_get_rate>
    1f88:	b9124260 	str	w0, [x19,#4672]
    1f8c:	f947c268 	ldr	x8, [x19,#3968]
    1f90:	b912467f 	str	wzr, [x19,#4676]
    1f94:	b940b108 	ldr	w8, [x8,#176]
    1f98:	34000068 	cbz	w8, 1fa4 <stmmac_hw_setup+0x400>
    1f9c:	b94fb668 	ldr	w8, [x19,#4020]
    1fa0:	350000a8 	cbnz	w8, 1fb4 <stmmac_hw_setup+0x410>
    1fa4:	b951b668 	ldr	w8, [x19,#4532]
    1fa8:	340000a8 	cbz	w8, 1fbc <stmmac_hw_setup+0x418>
    1fac:	b94fb668 	ldr	w8, [x19,#4020]
    1fb0:	34000068 	cbz	w8, 1fbc <stmmac_hw_setup+0x418>
    1fb4:	52800028 	mov	w8, #0x1                   	// #1
    1fb8:	b9124668 	str	w8, [x19,#4676]
    1fbc:	b94fb269 	ldr	w9, [x19,#4016]
    1fc0:	91240274 	add	x20, x19, #0x900
    1fc4:	34000109 	cbz	w9, 1fe4 <stmmac_hw_setup+0x440>
    1fc8:	f9458a60 	ldr	x0, [x19,#2832]
    1fcc:	d2800001 	mov	x1, #0x0                   	// #0
    1fd0:	f2a00001 	movk	x1, #0x0, lsl #16
    1fd4:	f2c00001 	movk	x1, #0x0, lsl #32
    1fd8:	f2e00001 	movk	x1, #0x0, lsl #48
    1fdc:	94000000 	bl	0 <netdev_info>
    1fe0:	b9524668 	ldr	w8, [x19,#4676]
    1fe4:	340000e8 	cbz	w8, 2000 <stmmac_hw_setup+0x45c>
    1fe8:	f9458a60 	ldr	x0, [x19,#2832]
    1fec:	d2800001 	mov	x1, #0x0                   	// #0
    1ff0:	f2a00001 	movk	x1, #0x0, lsl #16
    1ff4:	f2c00001 	movk	x1, #0x0, lsl #32
    1ff8:	f2e00001 	movk	x1, #0x0, lsl #48
    1ffc:	94000000 	bl	0 <netdev_info>
    2000:	f9459268 	ldr	x8, [x19,#2848]
    2004:	d2800009 	mov	x9, #0x0                   	// #0
    2008:	f2a00009 	movk	x9, #0x0, lsl #16
    200c:	f2c00009 	movk	x9, #0x0, lsl #32
    2010:	f2e00009 	movk	x9, #0x0, lsl #48
    2014:	aa1403e0 	mov	x0, x20
    2018:	f9001109 	str	x9, [x8,#32]
    201c:	b909467f 	str	wzr, [x19,#2372]
    2020:	b909f27f 	str	wzr, [x19,#2544]
    2024:	94000000 	bl	bed8 <stmmac_ptp_register>
    2028:	d2800008 	mov	x8, #0x0                   	// #0
    202c:	f2a00008 	movk	x8, #0x0, lsl #16
    2030:	f2c00008 	movk	x8, #0x0, lsl #32
    2034:	f2e00008 	movk	x8, #0x0, lsl #48
    2038:	f9400101 	ldr	x1, [x8]
    203c:	aa1303e0 	mov	x0, x19
    2040:	94000000 	bl	0 <debugfs_create_dir>
    2044:	f9093e60 	str	x0, [x19,#4728]
    2048:	b4000500 	cbz	x0, 20e8 <stmmac_hw_setup+0x544>
    204c:	aa0003e2 	mov	x2, x0
    2050:	b13ffc1f 	cmn	x0, #0xfff
    2054:	540004a2 	b.cs	20e8 <stmmac_hw_setup+0x544>
    2058:	d2800000 	mov	x0, #0x0                   	// #0
    205c:	d2800004 	mov	x4, #0x0                   	// #0
    2060:	f2a00000 	movk	x0, #0x0, lsl #16
    2064:	f2a00004 	movk	x4, #0x0, lsl #16
    2068:	f2c00000 	movk	x0, #0x0, lsl #32
    206c:	f2c00004 	movk	x4, #0x0, lsl #32
    2070:	f2e00000 	movk	x0, #0x0, lsl #48
    2074:	f2e00004 	movk	x4, #0x0, lsl #48
    2078:	52802481 	mov	w1, #0x124                 	// #292
    207c:	aa1303e3 	mov	x3, x19
    2080:	94000000 	bl	0 <debugfs_create_file>
    2084:	f9094260 	str	x0, [x19,#4736]
    2088:	b4000460 	cbz	x0, 2114 <stmmac_hw_setup+0x570>
    208c:	b13ffc1f 	cmn	x0, #0xfff
    2090:	54000422 	b.cs	2114 <stmmac_hw_setup+0x570>
    2094:	f9493e62 	ldr	x2, [x19,#4728]
    2098:	d2800000 	mov	x0, #0x0                   	// #0
    209c:	d2800004 	mov	x4, #0x0                   	// #0
    20a0:	f2a00000 	movk	x0, #0x0, lsl #16
    20a4:	f2a00004 	movk	x4, #0x0, lsl #16
    20a8:	f2c00000 	movk	x0, #0x0, lsl #32
    20ac:	f2c00004 	movk	x4, #0x0, lsl #32
    20b0:	f2e00000 	movk	x0, #0x0, lsl #48
    20b4:	f2e00004 	movk	x4, #0x0, lsl #48
    20b8:	52802481 	mov	w1, #0x124                 	// #292
    20bc:	aa1303e3 	mov	x3, x19
    20c0:	94000000 	bl	0 <debugfs_create_file>
    20c4:	f9094660 	str	x0, [x19,#4744]
    20c8:	b4000060 	cbz	x0, 20d4 <stmmac_hw_setup+0x530>
    20cc:	b13ffc1f 	cmn	x0, #0xfff
    20d0:	54000423 	b.cc	2154 <stmmac_hw_setup+0x5b0>
    20d4:	d2800000 	mov	x0, #0x0                   	// #0
    20d8:	f2a00000 	movk	x0, #0x0, lsl #16
    20dc:	f2c00000 	movk	x0, #0x0, lsl #32
    20e0:	f2e00000 	movk	x0, #0x0, lsl #48
    20e4:	14000010 	b	2124 <stmmac_hw_setup+0x580>
    20e8:	d2800000 	mov	x0, #0x0                   	// #0
    20ec:	d2800001 	mov	x1, #0x0                   	// #0
    20f0:	f2a00000 	movk	x0, #0x0, lsl #16
    20f4:	f2a00001 	movk	x1, #0x0, lsl #16
    20f8:	f2c00000 	movk	x0, #0x0, lsl #32
    20fc:	f2c00001 	movk	x1, #0x0, lsl #32
    2100:	f2e00000 	movk	x0, #0x0, lsl #48
    2104:	f2e00001 	movk	x1, #0x0, lsl #48
    2108:	aa1303e2 	mov	x2, x19
    210c:	94000000 	bl	0 <printk>
    2110:	14000008 	b	2130 <stmmac_hw_setup+0x58c>
    2114:	d2800000 	mov	x0, #0x0                   	// #0
    2118:	f2a00000 	movk	x0, #0x0, lsl #16
    211c:	f2c00000 	movk	x0, #0x0, lsl #32
    2120:	f2e00000 	movk	x0, #0x0, lsl #48
    2124:	94000000 	bl	0 <printk>
    2128:	f9493e60 	ldr	x0, [x19,#4728]
    212c:	94000000 	bl	0 <debugfs_remove_recursive>
    2130:	d2800000 	mov	x0, #0x0                   	// #0
    2134:	d2800001 	mov	x1, #0x0                   	// #0
    2138:	f2a00000 	movk	x0, #0x0, lsl #16
    213c:	f2a00001 	movk	x1, #0x0, lsl #16
    2140:	f2c00000 	movk	x0, #0x0, lsl #32
    2144:	f2c00001 	movk	x1, #0x0, lsl #32
    2148:	f2e00000 	movk	x0, #0x0, lsl #48
    214c:	f2e00001 	movk	x1, #0x0, lsl #48
    2150:	94000000 	bl	0 <printk>
    2154:	52822528 	mov	w8, #0x1129                	// #4393
    2158:	38686a68 	ldrb	w8, [x19,x8]
    215c:	36280148 	tbz	w8, #5, 2184 <stmmac_hw_setup+0x5e0>
    2160:	f9459260 	ldr	x0, [x19,#2848]
    2164:	f9400008 	ldr	x8, [x0]
    2168:	f9400908 	ldr	x8, [x8,#16]
    216c:	d63f0100 	blr	x8
    2170:	f9459268 	ldr	x8, [x19,#2848]
    2174:	f9458660 	ldr	x0, [x19,#2824]
    2178:	f9400908 	ldr	x8, [x8,#16]
    217c:	f9400d08 	ldr	x8, [x8,#24]
    2180:	d63f0100 	blr	x8
    2184:	b9524a68 	ldr	w8, [x19,#4680]
    2188:	528003c9 	mov	w9, #0x1e                  	// #30
    218c:	b911ae69 	str	w9, [x19,#4524]
    2190:	34000188 	cbz	w8, 21c0 <stmmac_hw_setup+0x61c>
    2194:	f9459268 	ldr	x8, [x19,#2848]
    2198:	f9400909 	ldr	x9, [x8,#16]
    219c:	f9403d29 	ldr	x9, [x9,#120]
    21a0:	b4000109 	cbz	x9, 21c0 <stmmac_hw_setup+0x61c>
    21a4:	52801fe9 	mov	w9, #0xff                  	// #255
    21a8:	b909ee69 	str	w9, [x19,#2540]
    21ac:	f9400908 	ldr	x8, [x8,#16]
    21b0:	f9458660 	ldr	x0, [x19,#2824]
    21b4:	52801fe1 	mov	w1, #0xff                  	// #255
    21b8:	f9403d08 	ldr	x8, [x8,#120]
    21bc:	d63f0100 	blr	x8
    21c0:	f9459260 	ldr	x0, [x19,#2848]
    21c4:	b9405808 	ldr	w8, [x0,#88]
    21c8:	34000168 	cbz	w8, 21f4 <stmmac_hw_setup+0x650>
    21cc:	f9400008 	ldr	x8, [x0]
    21d0:	f9403908 	ldr	x8, [x8,#112]
    21d4:	b4000108 	cbz	x8, 21f4 <stmmac_hw_setup+0x650>
    21d8:	b9406009 	ldr	w9, [x0,#96]
    21dc:	52800021 	mov	w1, #0x1                   	// #1
    21e0:	2a1f03e3 	mov	w3, wzr
    21e4:	7100013f 	cmp	w9, #0x0
    21e8:	1a9f07e2 	cset	w2, ne
    21ec:	d63f0100 	blr	x8
    21f0:	f9459260 	ldr	x0, [x19,#2848]
    21f4:	f9400808 	ldr	x8, [x0,#16]
    21f8:	f9404109 	ldr	x9, [x8,#128]
    21fc:	b40000c9 	cbz	x9, 2214 <stmmac_hw_setup+0x670>
    2200:	f9458660 	ldr	x0, [x19,#2824]
    2204:	52803fe1 	mov	w1, #0x1ff                 	// #511
    2208:	d63f0120 	blr	x9
    220c:	f9459268 	ldr	x8, [x19,#2848]
    2210:	f9400908 	ldr	x8, [x8,#16]
    2214:	f9404508 	ldr	x8, [x8,#136]
    2218:	b4000088 	cbz	x8, 2228 <stmmac_hw_setup+0x684>
    221c:	f9458660 	ldr	x0, [x19,#2824]
    2220:	52803fe1 	mov	w1, #0x1ff                 	// #511
    2224:	d63f0100 	blr	x8
    2228:	39666268 	ldrb	w8, [x19,#2456]
    222c:	34000108 	cbz	w8, 224c <stmmac_hw_setup+0x6a8>
    2230:	f9459268 	ldr	x8, [x19,#2848]
    2234:	f9458660 	ldr	x0, [x19,#2824]
    2238:	52800021 	mov	w1, #0x1                   	// #1
    223c:	2a1f03e2 	mov	w2, wzr
    2240:	f9400908 	ldr	x8, [x8,#16]
    2244:	f9405108 	ldr	x8, [x8,#160]
    2248:	d63f0100 	blr	x8
    224c:	f9459268 	ldr	x8, [x19,#2848]
    2250:	f9458660 	ldr	x0, [x19,#2824]
    2254:	f9400908 	ldr	x8, [x8,#16]
    2258:	f9402508 	ldr	x8, [x8,#72]
    225c:	d63f0100 	blr	x8
    2260:	f9459268 	ldr	x8, [x19,#2848]
    2264:	f9458660 	ldr	x0, [x19,#2824]
    2268:	f9400908 	ldr	x8, [x8,#16]
    226c:	f9402d08 	ldr	x8, [x8,#88]
    2270:	d63f0100 	blr	x8
    2274:	2a1f03f9 	mov	w25, wzr
    2278:	a9447bfd 	ldp	x29, x30, [sp,#64]
    227c:	a9434ff4 	ldp	x20, x19, [sp,#48]
    2280:	a94257f6 	ldp	x22, x21, [sp,#32]
    2284:	a9415ff8 	ldp	x24, x23, [sp,#16]
    2288:	2a1903e0 	mov	w0, w25
    228c:	a8c567fa 	ldp	x26, x25, [sp],#80
    2290:	d65f03c0 	ret
    2294:	f9458a60 	ldr	x0, [x19,#2832]
    2298:	d2800001 	mov	x1, #0x0                   	// #0
    229c:	f2a00001 	movk	x1, #0x0, lsl #16
    22a0:	f2c00001 	movk	x1, #0x0, lsl #32
    22a4:	f2e00001 	movk	x1, #0x0, lsl #48
    22a8:	94000000 	bl	0 <netdev_warn>
    22ac:	17ffff5f 	b	2028 <stmmac_hw_setup+0x484>
    22b0:	f9459268 	ldr	x8, [x19,#2848]
    22b4:	d2800009 	mov	x9, #0x0                   	// #0
    22b8:	f2a00009 	movk	x9, #0x0, lsl #16
    22bc:	f2c00009 	movk	x9, #0x0, lsl #32
    22c0:	f9400908 	ldr	x8, [x8,#16]
    22c4:	f2e00009 	movk	x9, #0x0, lsl #48
    22c8:	f9458660 	ldr	x0, [x19,#2824]
    22cc:	b9400121 	ldr	w1, [x9]
    22d0:	f9401108 	ldr	x8, [x8,#32]
    22d4:	52800022 	mov	w2, #0x1                   	// #1
    22d8:	17fffeda 	b	1e40 <stmmac_hw_setup+0x29c>

00000000000022dc <stmmac_set_rx_mode>:
    22dc:	f81e0ff3 	str	x19, [sp,#-32]!
    22e0:	a9017bfd 	stp	x29, x30, [sp,#16]
    22e4:	910043fd 	add	x29, sp, #0x10
    22e8:	aa0003f3 	mov	x19, x0
    22ec:	94000000 	bl	0 <_mcount>
    22f0:	f9459260 	ldr	x0, [x19,#2848]
    22f4:	aa1303e1 	mov	x1, x19
    22f8:	f9400008 	ldr	x8, [x0]
    22fc:	f9401108 	ldr	x8, [x8,#32]
    2300:	d63f0100 	blr	x8
    2304:	a9417bfd 	ldp	x29, x30, [sp,#16]
    2308:	f84207f3 	ldr	x19, [sp],#32
    230c:	d65f03c0 	ret

0000000000002310 <stmmac_open>:
    2310:	d10403ff 	sub	sp, sp, #0x100
    2314:	a90a6ffc 	stp	x28, x27, [sp,#160]
    2318:	a90b67fa 	stp	x26, x25, [sp,#176]
    231c:	a90c5ff8 	stp	x24, x23, [sp,#192]
    2320:	a90d57f6 	stp	x22, x21, [sp,#208]
    2324:	a90e4ff4 	stp	x20, x19, [sp,#224]
    2328:	a90f7bfd 	stp	x29, x30, [sp,#240]
    232c:	9103c3fd 	add	x29, sp, #0xf0
    2330:	aa0003f3 	mov	x19, x0
    2334:	94000000 	bl	0 <_mcount>
    2338:	d2800000 	mov	x0, #0x0                   	// #0
    233c:	f2a00000 	movk	x0, #0x0, lsl #16
    2340:	f2c00000 	movk	x0, #0x0, lsl #32
    2344:	f2e00000 	movk	x0, #0x0, lsl #48
    2348:	94000000 	bl	0 <printk>
    234c:	f9459268 	ldr	x8, [x19,#2848]
    2350:	b9405908 	ldr	w8, [x8,#88]
    2354:	7100211f 	cmp	w8, #0x8
    2358:	54000a68 	b.hi	24a4 <stmmac_open+0x194>
    235c:	52800029 	mov	w9, #0x1                   	// #1
    2360:	1ac82128 	lsl	w8, w9, w8
    2364:	52802249 	mov	w9, #0x112                 	// #274
    2368:	6a09011f 	tst	w8, w9
    236c:	540009c0 	b.eq	24a4 <stmmac_open+0x194>
    2370:	52801817 	mov	w23, #0xc0                  	// #192
    2374:	91300260 	add	x0, x19, #0xc00
    2378:	52807002 	mov	w2, #0x380                 	// #896
    237c:	2a1f03e1 	mov	w1, wzr
    2380:	72a04817 	movk	w23, #0x240, lsl #16
    2384:	94000000 	bl	0 <memset>
    2388:	d2800008 	mov	x8, #0x0                   	// #0
    238c:	f2a00008 	movk	x8, #0x0, lsl #16
    2390:	f2c00008 	movk	x8, #0x0, lsl #32
    2394:	f2e00008 	movk	x8, #0x0, lsl #48
    2398:	b9800108 	ldrsw	x8, [x8]
    239c:	d2800018 	mov	x24, #0x0                   	// #0
    23a0:	f2a00018 	movk	x24, #0x0, lsl #16
    23a4:	f2c00018 	movk	x24, #0x0, lsl #32
    23a8:	f2e00018 	movk	x24, #0x0, lsl #48
    23ac:	f9069668 	str	x8, [x19,#3368]
    23b0:	b9400308 	ldr	w8, [x24]
    23b4:	d2800014 	mov	x20, #0x0                   	// #0
    23b8:	f2a00014 	movk	x20, #0x0, lsl #16
    23bc:	52802009 	mov	w9, #0x100                 	// #256
    23c0:	1100fd08 	add	w8, w8, #0x3f
    23c4:	f2c00014 	movk	x20, #0x0, lsl #32
    23c8:	121a6508 	and	w8, w8, #0xffffffc0
    23cc:	b909e669 	str	w9, [x19,#2532]
    23d0:	b912727f 	str	wzr, [x19,#4720]
    23d4:	b909e268 	str	w8, [x19,#2528]
    23d8:	f2e00014 	movk	x20, #0x0, lsl #48
    23dc:	f9400280 	ldr	x0, [x20]
    23e0:	52801801 	mov	w1, #0xc0                  	// #192
    23e4:	72a04801 	movk	w1, #0x240, lsl #16
    23e8:	52820002 	mov	w2, #0x1000                	// #4096
    23ec:	94000000 	bl	0 <kmem_cache_alloc_trace>
    23f0:	f904fe60 	str	x0, [x19,#2552]
    23f4:	b40028e0 	cbz	x0, 2910 <stmmac_open+0x600>
    23f8:	f9400280 	ldr	x0, [x20]
    23fc:	52801801 	mov	w1, #0xc0                  	// #192
    2400:	72a04801 	movk	w1, #0x240, lsl #16
    2404:	52820002 	mov	w2, #0x1000                	// #4096
    2408:	94000000 	bl	0 <kmem_cache_alloc_trace>
    240c:	f904ea60 	str	x0, [x19,#2512]
    2410:	b40027c0 	cbz	x0, 2908 <stmmac_open+0x5f8>
    2414:	52801801 	mov	w1, #0xc0                  	// #192
    2418:	52860000 	mov	w0, #0x3000                	// #12288
    241c:	72a04801 	movk	w1, #0x240, lsl #16
    2420:	52800042 	mov	w2, #0x2                   	// #2
    2424:	94000000 	bl	0 <kmalloc_order_trace>
    2428:	f9049a60 	str	x0, [x19,#2352]
    242c:	b40026a0 	cbz	x0, 2900 <stmmac_open+0x5f0>
    2430:	f9400280 	ldr	x0, [x20]
    2434:	52801801 	mov	w1, #0xc0                  	// #192
    2438:	72a04801 	movk	w1, #0x240, lsl #16
    243c:	52820002 	mov	w2, #0x1000                	// #4096
    2440:	94000000 	bl	0 <kmem_cache_alloc_trace>
    2444:	f9048a60 	str	x0, [x19,#2320]
    2448:	b4002580 	cbz	x0, 28f8 <stmmac_open+0x5e8>
    244c:	b951b668 	ldr	w8, [x19,#4532]
    2450:	f9458e75 	ldr	x21, [x19,#2840]
    2454:	91240279 	add	x25, x19, #0x900
    2458:	91280276 	add	x22, x19, #0xa00
    245c:	34000ce8 	cbz	w8, 25f8 <stmmac_open+0x2e8>
    2460:	b4000075 	cbz	x21, 246c <stmmac_open+0x15c>
    2464:	f94126b4 	ldr	x20, [x21,#584]
    2468:	b50000b4 	cbnz	x20, 247c <stmmac_open+0x16c>
    246c:	d2800014 	mov	x20, #0x0                   	// #0
    2470:	f2a00014 	movk	x20, #0x0, lsl #16
    2474:	f2c00014 	movk	x20, #0x0, lsl #32
    2478:	f2e00014 	movk	x20, #0x0, lsl #48
    247c:	910183e3 	add	x3, sp, #0x60
    2480:	52880001 	mov	w1, #0x4000                	// #16384
    2484:	aa1503e0 	mov	x0, x21
    2488:	aa1603e2 	mov	x2, x22
    248c:	94000000 	bl	0 <dma_alloc_from_coherent>
    2490:	34000d60 	cbz	w0, 263c <stmmac_open+0x32c>
    2494:	f94033e0 	ldr	x0, [sp,#96]
    2498:	f904e660 	str	x0, [x19,#2504]
    249c:	b5000e60 	cbnz	x0, 2668 <stmmac_open+0x358>
    24a0:	14000114 	b	28f0 <stmmac_open+0x5e0>
    24a4:	f947c268 	ldr	x8, [x19,#3968]
    24a8:	d2800000 	mov	x0, #0x0                   	// #0
    24ac:	f2a00000 	movk	x0, #0x0, lsl #16
    24b0:	f2c00000 	movk	x0, #0x0, lsl #32
    24b4:	b9400914 	ldr	w20, [x8,#8]
    24b8:	b9405916 	ldr	w22, [x8,#88]
    24bc:	6f00e400 	movi	v0.2d, #0x0
    24c0:	12800008 	mov	w8, #0xffffffff            	// #-1
    24c4:	f2e00000 	movk	x0, #0x0, lsl #48
    24c8:	fd05a660 	str	d0, [x19,#2888]
    24cc:	b90b5268 	str	w8, [x19,#2896]
    24d0:	94000000 	bl	0 <printk>
    24d4:	f947c268 	ldr	x8, [x19,#3968]
    24d8:	f9400d01 	ldr	x1, [x8,#24]
    24dc:	b4000441 	cbz	x1, 2564 <stmmac_open+0x254>
    24e0:	d2800002 	mov	x2, #0x0                   	// #0
    24e4:	f2a00002 	movk	x2, #0x0, lsl #16
    24e8:	f2c00002 	movk	x2, #0x0, lsl #32
    24ec:	f2e00002 	movk	x2, #0x0, lsl #48
    24f0:	aa1303e0 	mov	x0, x19
    24f4:	2a1f03e3 	mov	w3, wzr
    24f8:	2a1403e4 	mov	w4, w20
    24fc:	94000000 	bl	0 <of_phy_connect>
    2500:	aa0003f5 	mov	x21, x0
    2504:	b4000680 	cbz	x0, 25d4 <stmmac_open+0x2c4>
    2508:	b13ffebf 	cmn	x21, #0xfff
    250c:	54000642 	b.cs	25d4 <stmmac_open+0x2c4>
    2510:	7100069f 	cmp	w20, #0x1
    2514:	540000c0 	b.eq	252c <stmmac_open+0x21c>
    2518:	71001a9f 	cmp	w20, #0x6
    251c:	54000080 	b.eq	252c <stmmac_open+0x21c>
    2520:	510006c8 	sub	w8, w22, #0x1
    2524:	710f991f 	cmp	w8, #0x3e6
    2528:	54000088 	b.hi	2538 <stmmac_open+0x228>
    252c:	b94372a8 	ldr	w8, [x21,#880]
    2530:	121a7508 	and	w8, w8, #0xffffffcf
    2534:	b90372a8 	str	w8, [x21,#880]
    2538:	f947c268 	ldr	x8, [x19,#3968]
    253c:	f9400d08 	ldr	x8, [x8,#24]
    2540:	b5000068 	cbnz	x8, 254c <stmmac_open+0x23c>
    2544:	b9431aa8 	ldr	w8, [x21,#792]
    2548:	34000f28 	cbz	w8, 272c <stmmac_open+0x41c>
    254c:	394d0aa8 	ldrb	w8, [x21,#834]
    2550:	34000068 	cbz	w8, 255c <stmmac_open+0x24c>
    2554:	12800008 	mov	w8, #0xffffffff            	// #-1
    2558:	b90386a8 	str	w8, [x21,#900]
    255c:	f905a275 	str	x21, [x19,#2880]
    2560:	17ffff84 	b	2370 <stmmac_open+0x60>
    2564:	b9400103 	ldr	w3, [x8]
    2568:	d2800002 	mov	x2, #0x0                   	// #0
    256c:	f2a00002 	movk	x2, #0x0, lsl #16
    2570:	f2c00002 	movk	x2, #0x0, lsl #32
    2574:	910083e0 	add	x0, sp, #0x20
    2578:	f2e00002 	movk	x2, #0x0, lsl #48
    257c:	528007a1 	mov	w1, #0x3d                  	// #61
    2580:	94000000 	bl	0 <snprintf>
    2584:	f947c268 	ldr	x8, [x19,#3968]
    2588:	d2800002 	mov	x2, #0x0                   	// #0
    258c:	f2a00002 	movk	x2, #0x0, lsl #16
    2590:	f2c00002 	movk	x2, #0x0, lsl #32
    2594:	b9400504 	ldr	w4, [x8,#4]
    2598:	910183e0 	add	x0, sp, #0x60
    259c:	910083e3 	add	x3, sp, #0x20
    25a0:	f2e00002 	movk	x2, #0x0, lsl #48
    25a4:	52800801 	mov	w1, #0x40                  	// #64
    25a8:	94000000 	bl	0 <snprintf>
    25ac:	d2800002 	mov	x2, #0x0                   	// #0
    25b0:	f2a00002 	movk	x2, #0x0, lsl #16
    25b4:	f2c00002 	movk	x2, #0x0, lsl #32
    25b8:	f2e00002 	movk	x2, #0x0, lsl #48
    25bc:	910183e1 	add	x1, sp, #0x60
    25c0:	aa1303e0 	mov	x0, x19
    25c4:	2a1403e3 	mov	w3, w20
    25c8:	94000000 	bl	0 <phy_connect>
    25cc:	aa0003f5 	mov	x21, x0
    25d0:	b5fff9c0 	cbnz	x0, 2508 <stmmac_open+0x1f8>
    25d4:	d2800000 	mov	x0, #0x0                   	// #0
    25d8:	f2a00000 	movk	x0, #0x0, lsl #16
    25dc:	f2c00000 	movk	x0, #0x0, lsl #32
    25e0:	f2e00000 	movk	x0, #0x0, lsl #48
    25e4:	aa1303e1 	mov	x1, x19
    25e8:	94000000 	bl	0 <printk>
    25ec:	b4000a55 	cbz	x21, 2734 <stmmac_open+0x424>
    25f0:	35000a55 	cbnz	w21, 2738 <stmmac_open+0x428>
    25f4:	17ffff5f 	b	2370 <stmmac_open+0x60>
    25f8:	b4000075 	cbz	x21, 2604 <stmmac_open+0x2f4>
    25fc:	f94126b4 	ldr	x20, [x21,#584]
    2600:	b50000b4 	cbnz	x20, 2614 <stmmac_open+0x304>
    2604:	d2800014 	mov	x20, #0x0                   	// #0
    2608:	f2a00014 	movk	x20, #0x0, lsl #16
    260c:	f2c00014 	movk	x20, #0x0, lsl #32
    2610:	f2e00014 	movk	x20, #0x0, lsl #48
    2614:	910183e3 	add	x3, sp, #0x60
    2618:	52840001 	mov	w1, #0x2000                	// #8192
    261c:	aa1503e0 	mov	x0, x21
    2620:	aa1603e2 	mov	x2, x22
    2624:	94000000 	bl	0 <dma_alloc_from_coherent>
    2628:	34000460 	cbz	w0, 26b4 <stmmac_open+0x3a4>
    262c:	f94033e0 	ldr	x0, [sp,#96]
    2630:	f904e260 	str	x0, [x19,#2496]
    2634:	b5000560 	cbnz	x0, 26e0 <stmmac_open+0x3d0>
    2638:	140000ae 	b	28f0 <stmmac_open+0x5e0>
    263c:	f9400288 	ldr	x8, [x20]
    2640:	b4000aa8 	cbz	x8, 2794 <stmmac_open+0x484>
    2644:	114022e3 	add	w3, w23, #0x8, lsl #12
    2648:	52880001 	mov	w1, #0x4000                	// #16384
    264c:	aa1503e0 	mov	x0, x21
    2650:	aa1603e2 	mov	x2, x22
    2654:	aa1f03e4 	mov	x4, xzr
    2658:	d63f0100 	blr	x8
    265c:	f90033e0 	str	x0, [sp,#96]
    2660:	f904e660 	str	x0, [x19,#2504]
    2664:	b4001460 	cbz	x0, 28f0 <stmmac_open+0x5e0>
    2668:	f9458e75 	ldr	x21, [x19,#2840]
    266c:	9124e276 	add	x22, x19, #0x938
    2670:	b4000075 	cbz	x21, 267c <stmmac_open+0x36c>
    2674:	f94126b4 	ldr	x20, [x21,#584]
    2678:	b50000b4 	cbnz	x20, 268c <stmmac_open+0x37c>
    267c:	d2800014 	mov	x20, #0x0                   	// #0
    2680:	f2a00014 	movk	x20, #0x0, lsl #16
    2684:	f2c00014 	movk	x20, #0x0, lsl #32
    2688:	f2e00014 	movk	x20, #0x0, lsl #48
    268c:	910183e3 	add	x3, sp, #0x60
    2690:	52880001 	mov	w1, #0x4000                	// #16384
    2694:	aa1503e0 	mov	x0, x21
    2698:	aa1603e2 	mov	x2, x22
    269c:	94000000 	bl	0 <dma_alloc_from_coherent>
    26a0:	34000620 	cbz	w0, 2764 <stmmac_open+0x454>
    26a4:	f94033e0 	ldr	x0, [sp,#96]
    26a8:	f9000320 	str	x0, [x25]
    26ac:	b50008e0 	cbnz	x0, 27c8 <stmmac_open+0x4b8>
    26b0:	1400005f 	b	282c <stmmac_open+0x51c>
    26b4:	f9400288 	ldr	x8, [x20]
    26b8:	b4000ac8 	cbz	x8, 2810 <stmmac_open+0x500>
    26bc:	114022e3 	add	w3, w23, #0x8, lsl #12
    26c0:	52840001 	mov	w1, #0x2000                	// #8192
    26c4:	aa1503e0 	mov	x0, x21
    26c8:	aa1603e2 	mov	x2, x22
    26cc:	aa1f03e4 	mov	x4, xzr
    26d0:	d63f0100 	blr	x8
    26d4:	f90033e0 	str	x0, [sp,#96]
    26d8:	f904e260 	str	x0, [x19,#2496]
    26dc:	b40010a0 	cbz	x0, 28f0 <stmmac_open+0x5e0>
    26e0:	f9458e75 	ldr	x21, [x19,#2840]
    26e4:	9124e276 	add	x22, x19, #0x938
    26e8:	b4000075 	cbz	x21, 26f4 <stmmac_open+0x3e4>
    26ec:	f94126b4 	ldr	x20, [x21,#584]
    26f0:	b50000b4 	cbnz	x20, 2704 <stmmac_open+0x3f4>
    26f4:	d2800014 	mov	x20, #0x0                   	// #0
    26f8:	f2a00014 	movk	x20, #0x0, lsl #16
    26fc:	f2c00014 	movk	x20, #0x0, lsl #32
    2700:	f2e00014 	movk	x20, #0x0, lsl #48
    2704:	910183e3 	add	x3, sp, #0x60
    2708:	52840001 	mov	w1, #0x2000                	// #8192
    270c:	aa1503e0 	mov	x0, x21
    2710:	aa1603e2 	mov	x2, x22
    2714:	94000000 	bl	0 <dma_alloc_from_coherent>
    2718:	34000420 	cbz	w0, 279c <stmmac_open+0x48c>
    271c:	f94033e0 	ldr	x0, [sp,#96]
    2720:	f9048660 	str	x0, [x19,#2312]
    2724:	b5000520 	cbnz	x0, 27c8 <stmmac_open+0x4b8>
    2728:	14000058 	b	2888 <stmmac_open+0x578>
    272c:	aa1503e0 	mov	x0, x21
    2730:	94000000 	bl	0 <phy_disconnect>
    2734:	12800255 	mov	w21, #0xffffffed            	// #-19
    2738:	d2800000 	mov	x0, #0x0                   	// #0
    273c:	d2800001 	mov	x1, #0x0                   	// #0
    2740:	f2a00000 	movk	x0, #0x0, lsl #16
    2744:	f2a00001 	movk	x1, #0x0, lsl #16
    2748:	f2c00000 	movk	x0, #0x0, lsl #32
    274c:	f2c00001 	movk	x1, #0x0, lsl #32
    2750:	f2e00000 	movk	x0, #0x0, lsl #48
    2754:	f2e00001 	movk	x1, #0x0, lsl #48
    2758:	2a1503e2 	mov	w2, w21
    275c:	94000000 	bl	0 <printk>
    2760:	14000079 	b	2944 <stmmac_open+0x634>
    2764:	f9400288 	ldr	x8, [x20]
    2768:	b4000608 	cbz	x8, 2828 <stmmac_open+0x518>
    276c:	114022e3 	add	w3, w23, #0x8, lsl #12
    2770:	52880001 	mov	w1, #0x4000                	// #16384
    2774:	aa1503e0 	mov	x0, x21
    2778:	aa1603e2 	mov	x2, x22
    277c:	aa1f03e4 	mov	x4, xzr
    2780:	d63f0100 	blr	x8
    2784:	f90033e0 	str	x0, [sp,#96]
    2788:	f9000320 	str	x0, [x25]
    278c:	b50001e0 	cbnz	x0, 27c8 <stmmac_open+0x4b8>
    2790:	14000027 	b	282c <stmmac_open+0x51c>
    2794:	f904e67f 	str	xzr, [x19,#2504]
    2798:	14000056 	b	28f0 <stmmac_open+0x5e0>
    279c:	f9400288 	ldr	x8, [x20]
    27a0:	b4000728 	cbz	x8, 2884 <stmmac_open+0x574>
    27a4:	114022e3 	add	w3, w23, #0x8, lsl #12
    27a8:	52840001 	mov	w1, #0x2000                	// #8192
    27ac:	aa1503e0 	mov	x0, x21
    27b0:	aa1603e2 	mov	x2, x22
    27b4:	aa1f03e4 	mov	x4, xzr
    27b8:	d63f0100 	blr	x8
    27bc:	f90033e0 	str	x0, [sp,#96]
    27c0:	f9048660 	str	x0, [x19,#2312]
    27c4:	b4000620 	cbz	x0, 2888 <stmmac_open+0x578>
    27c8:	f9459268 	ldr	x8, [x19,#2848]
    27cc:	f9400d08 	ldr	x8, [x8,#24]
    27d0:	f9400d08 	ldr	x8, [x8,#24]
    27d4:	b40000c8 	cbz	x8, 27ec <stmmac_open+0x4dc>
    27d8:	b9424a60 	ldr	w0, [x19,#584]
    27dc:	d63f0100 	blr	x8
    27e0:	53047c08 	lsr	w8, w0, #4
    27e4:	710ff91f 	cmp	w8, #0x3fe
    27e8:	54000c88 	b.hi	2978 <stmmac_open+0x668>
    27ec:	b9424a68 	ldr	w8, [x19,#584]
    27f0:	7140091f 	cmp	w8, #0x2, lsl #12
    27f4:	5400006b 	b.lt	2800 <stmmac_open+0x4f0>
    27f8:	5287fe00 	mov	w0, #0x3ff0                	// #16368
    27fc:	1400005f 	b	2978 <stmmac_open+0x668>
    2800:	713ffd1f 	cmp	w8, #0xfff
    2804:	540000ad 	b.le	2818 <stmmac_open+0x508>
    2808:	52840000 	mov	w0, #0x2000                	// #8192
    280c:	1400005b 	b	2978 <stmmac_open+0x668>
    2810:	f904e27f 	str	xzr, [x19,#2496]
    2814:	14000037 	b	28f0 <stmmac_open+0x5e0>
    2818:	711ffd1f 	cmp	w8, #0x7ff
    281c:	54000a6d 	b.le	2968 <stmmac_open+0x658>
    2820:	52820000 	mov	w0, #0x1000                	// #4096
    2824:	14000055 	b	2978 <stmmac_open+0x668>
    2828:	f900033f 	str	xzr, [x25]
    282c:	f9458e74 	ldr	x20, [x19,#2840]
    2830:	f944e676 	ldr	x22, [x19,#2504]
    2834:	f9450275 	ldr	x21, [x19,#2560]
    2838:	b4000074 	cbz	x20, 2844 <stmmac_open+0x534>
    283c:	f9412697 	ldr	x23, [x20,#584]
    2840:	b50000b7 	cbnz	x23, 2854 <stmmac_open+0x544>
    2844:	d2800017 	mov	x23, #0x0                   	// #0
    2848:	f2a00017 	movk	x23, #0x0, lsl #16
    284c:	f2c00017 	movk	x23, #0x0, lsl #32
    2850:	f2e00017 	movk	x23, #0x0, lsl #48
    2854:	d53b4228 	mrs	x8, daif
    2858:	373838c8 	tbnz	w8, #7, 2f70 <stmmac_open+0xc60>
    285c:	52800041 	mov	w1, #0x2                   	// #2
    2860:	aa1403e0 	mov	x0, x20
    2864:	aa1603e2 	mov	x2, x22
    2868:	94000000 	bl	0 <dma_release_from_coherent>
    286c:	35000420 	cbnz	w0, 28f0 <stmmac_open+0x5e0>
    2870:	b4000416 	cbz	x22, 28f0 <stmmac_open+0x5e0>
    2874:	f94006e8 	ldr	x8, [x23,#8]
    2878:	b40003c8 	cbz	x8, 28f0 <stmmac_open+0x5e0>
    287c:	52880001 	mov	w1, #0x4000                	// #16384
    2880:	14000017 	b	28dc <stmmac_open+0x5cc>
    2884:	f904867f 	str	xzr, [x19,#2312]
    2888:	f9458e74 	ldr	x20, [x19,#2840]
    288c:	f944e276 	ldr	x22, [x19,#2496]
    2890:	f9450275 	ldr	x21, [x19,#2560]
    2894:	b4000074 	cbz	x20, 28a0 <stmmac_open+0x590>
    2898:	f9412697 	ldr	x23, [x20,#584]
    289c:	b50000b7 	cbnz	x23, 28b0 <stmmac_open+0x5a0>
    28a0:	d2800017 	mov	x23, #0x0                   	// #0
    28a4:	f2a00017 	movk	x23, #0x0, lsl #16
    28a8:	f2c00017 	movk	x23, #0x0, lsl #32
    28ac:	f2e00017 	movk	x23, #0x0, lsl #48
    28b0:	d53b4228 	mrs	x8, daif
    28b4:	37383628 	tbnz	w8, #7, 2f78 <stmmac_open+0xc68>
    28b8:	52800021 	mov	w1, #0x1                   	// #1
    28bc:	aa1403e0 	mov	x0, x20
    28c0:	aa1603e2 	mov	x2, x22
    28c4:	94000000 	bl	0 <dma_release_from_coherent>
    28c8:	35000140 	cbnz	w0, 28f0 <stmmac_open+0x5e0>
    28cc:	b4000136 	cbz	x22, 28f0 <stmmac_open+0x5e0>
    28d0:	f94006e8 	ldr	x8, [x23,#8]
    28d4:	b40000e8 	cbz	x8, 28f0 <stmmac_open+0x5e0>
    28d8:	52840001 	mov	w1, #0x2000                	// #8192
    28dc:	aa1403e0 	mov	x0, x20
    28e0:	aa1603e2 	mov	x2, x22
    28e4:	aa1503e3 	mov	x3, x21
    28e8:	aa1f03e4 	mov	x4, xzr
    28ec:	d63f0100 	blr	x8
    28f0:	f9448a60 	ldr	x0, [x19,#2320]
    28f4:	94000000 	bl	0 <kfree>
    28f8:	f9449a60 	ldr	x0, [x19,#2352]
    28fc:	94000000 	bl	0 <kfree>
    2900:	f944ea60 	ldr	x0, [x19,#2512]
    2904:	94000000 	bl	0 <kfree>
    2908:	f944fe60 	ldr	x0, [x19,#2552]
    290c:	94000000 	bl	0 <kfree>
    2910:	d2800000 	mov	x0, #0x0                   	// #0
    2914:	d2800001 	mov	x1, #0x0                   	// #0
    2918:	f2a00000 	movk	x0, #0x0, lsl #16
    291c:	f2a00001 	movk	x1, #0x0, lsl #16
    2920:	f2c00000 	movk	x0, #0x0, lsl #32
    2924:	f2c00001 	movk	x1, #0x0, lsl #32
    2928:	f2e00000 	movk	x0, #0x0, lsl #48
    292c:	f2e00001 	movk	x1, #0x0, lsl #48
    2930:	94000000 	bl	0 <printk>
    2934:	12800175 	mov	w21, #0xfffffff4            	// #-12
    2938:	f945a260 	ldr	x0, [x19,#2880]
    293c:	b4000040 	cbz	x0, 2944 <stmmac_open+0x634>
    2940:	94000000 	bl	0 <phy_disconnect>
    2944:	2a1503e0 	mov	w0, w21
    2948:	a94f7bfd 	ldp	x29, x30, [sp,#240]
    294c:	a94e4ff4 	ldp	x20, x19, [sp,#224]
    2950:	a94d57f6 	ldp	x22, x21, [sp,#208]
    2954:	a94c5ff8 	ldp	x24, x23, [sp,#192]
    2958:	a94b67fa 	ldp	x26, x25, [sp,#176]
    295c:	a94a6ffc 	ldp	x28, x27, [sp,#160]
    2960:	910403ff 	add	sp, sp, #0x100
    2964:	d65f03c0 	ret
    2968:	7118011f 	cmp	w8, #0x600
    296c:	5280c008 	mov	w8, #0x600                 	// #1536
    2970:	52810009 	mov	w9, #0x800                 	// #2048
    2974:	1a88c120 	csel	w0, w9, w8, gt
    2978:	d280001b 	mov	x27, #0x0                   	// #0
    297c:	f2a0001b 	movk	x27, #0x0, lsl #16
    2980:	d2dff7f5 	mov	x21, #0xffbf00000000        	// #281195803836416
    2984:	f2c0001b 	movk	x27, #0x0, lsl #32
    2988:	f9000bf9 	str	x25, [sp,#16]
    298c:	aa1f03f4 	mov	x20, xzr
    2990:	aa1f03fc 	mov	x28, xzr
    2994:	91272279 	add	x25, x19, #0x9c8
    2998:	91270268 	add	x8, x19, #0x9c0
    299c:	f2fffff5 	movk	x21, #0xffff, lsl #48
    29a0:	f2e0001b 	movk	x27, #0x0, lsl #48
    29a4:	5287fe1a 	mov	w26, #0x3ff0                	// #16368
    29a8:	b9000fe0 	str	w0, [sp,#12]
    29ac:	b909e260 	str	w0, [x19,#2528]
    29b0:	f9000fe8 	str	x8, [sp,#24]
    29b4:	b951b668 	ldr	w8, [x19,#4532]
    29b8:	35000108 	cbnz	w8, 29d8 <stmmac_open+0x6c8>
    29bc:	1400000a 	b	29e4 <stmmac_open+0x6d4>
    29c0:	9100079c 	add	x28, x28, #0x1
    29c4:	f108039f 	cmp	x28, #0x200
    29c8:	91004294 	add	x20, x20, #0x10
    29cc:	54001300 	b.eq	2c2c <stmmac_open+0x91c>
    29d0:	b951b668 	ldr	w8, [x19,#4532]
    29d4:	34000088 	cbz	w8, 29e4 <stmmac_open+0x6d4>
    29d8:	f9400328 	ldr	x8, [x25]
    29dc:	8b1c1516 	add	x22, x8, x28, lsl #5
    29e0:	14000004 	b	29f0 <stmmac_open+0x6e0>
    29e4:	f9400fe8 	ldr	x8, [sp,#24]
    29e8:	f9400108 	ldr	x8, [x8]
    29ec:	8b140116 	add	x22, x8, x20
    29f0:	b949e268 	ldr	w8, [x19,#2528]
    29f4:	f9458a60 	ldr	x0, [x19,#2832]
    29f8:	52801802 	mov	w2, #0xc0                  	// #192
    29fc:	72a04802 	movk	w2, #0x240, lsl #16
    2a00:	11000901 	add	w1, w8, #0x2
    2a04:	94000000 	bl	0 <__netdev_alloc_skb>
    2a08:	b4000860 	cbz	x0, 2b14 <stmmac_open+0x804>
    2a0c:	f940c808 	ldr	x8, [x0,#400]
    2a10:	b9416009 	ldr	w9, [x0,#352]
    2a14:	aa0003f7 	mov	x23, x0
    2a18:	91000908 	add	x8, x8, #0x2
    2a1c:	11000929 	add	w9, w9, #0x2
    2a20:	f900c808 	str	x8, [x0,#400]
    2a24:	b9016009 	str	w9, [x0,#352]
    2a28:	f944ea68 	ldr	x8, [x19,#2512]
    2a2c:	f83c7900 	str	x0, [x8,x28,lsl #3]
    2a30:	f9458e60 	ldr	x0, [x19,#2840]
    2a34:	f940cae8 	ldr	x8, [x23,#400]
    2a38:	b949e263 	ldr	w3, [x19,#2528]
    2a3c:	b4000060 	cbz	x0, 2a48 <stmmac_open+0x738>
    2a40:	f9412409 	ldr	x9, [x0,#584]
    2a44:	b5000049 	cbnz	x9, 2a4c <stmmac_open+0x73c>
    2a48:	aa1b03e9 	mov	x9, x27
    2a4c:	f9401129 	ldr	x9, [x9,#32]
    2a50:	d346fd0a 	lsr	x10, x8, #6
    2a54:	927a654a 	and	x10, x10, #0xffffffc0
    2a58:	aa150141 	orr	x1, x10, x21
    2a5c:	92402d02 	and	x2, x8, #0xfff
    2a60:	52800044 	mov	w4, #0x2                   	// #2
    2a64:	aa1f03e5 	mov	x5, xzr
    2a68:	d63f0120 	blr	x9
    2a6c:	f944fe68 	ldr	x8, [x19,#2552]
    2a70:	d37df389 	lsl	x9, x28, #3
    2a74:	f8296900 	str	x0, [x8,x9]
    2a78:	f944fe68 	ldr	x8, [x19,#2552]
    2a7c:	f9458e60 	ldr	x0, [x19,#2840]
    2a80:	f8696901 	ldr	x1, [x8,x9]
    2a84:	b40001a0 	cbz	x0, 2ab8 <stmmac_open+0x7a8>
    2a88:	f9412408 	ldr	x8, [x0,#584]
    2a8c:	b4000168 	cbz	x8, 2ab8 <stmmac_open+0x7a8>
    2a90:	f9403908 	ldr	x8, [x8,#112]
    2a94:	b4000188 	cbz	x8, 2ac4 <stmmac_open+0x7b4>
    2a98:	b4000060 	cbz	x0, 2aa4 <stmmac_open+0x794>
    2a9c:	f9412408 	ldr	x8, [x0,#584]
    2aa0:	b5000048 	cbnz	x8, 2aa8 <stmmac_open+0x798>
    2aa4:	aa1b03e8 	mov	x8, x27
    2aa8:	f9403908 	ldr	x8, [x8,#112]
    2aac:	d63f0100 	blr	x8
    2ab0:	34000100 	cbz	w0, 2ad0 <stmmac_open+0x7c0>
    2ab4:	14000025 	b	2b48 <stmmac_open+0x838>
    2ab8:	aa1b03e8 	mov	x8, x27
    2abc:	f9403908 	ldr	x8, [x8,#112]
    2ac0:	b5fffec8 	cbnz	x8, 2a98 <stmmac_open+0x788>
    2ac4:	b100043f 	cmn	x1, #0x1
    2ac8:	1a9f17e0 	cset	w0, eq
    2acc:	350003e0 	cbnz	w0, 2b48 <stmmac_open+0x838>
    2ad0:	f944fe68 	ldr	x8, [x19,#2552]
    2ad4:	b9512669 	ldr	w9, [x19,#4388]
    2ad8:	f87c7908 	ldr	x8, [x8,x28,lsl #3]
    2adc:	7101013f 	cmp	w9, #0x40
    2ae0:	1a9fa7e9 	cset	w9, lt
    2ae4:	d37df129 	lsl	x9, x9, #3
    2ae8:	b8296ac8 	str	w8, [x22,x9]
    2aec:	f9459268 	ldr	x8, [x19,#2848]
    2af0:	f9400d08 	ldr	x8, [x8,#24]
    2af4:	f9401108 	ldr	x8, [x8,#32]
    2af8:	b4fff648 	cbz	x8, 29c0 <stmmac_open+0x6b0>
    2afc:	b949e269 	ldr	w9, [x19,#2528]
    2b00:	6b1a013f 	cmp	w9, w26
    2b04:	54fff5e1 	b.ne	29c0 <stmmac_open+0x6b0>
    2b08:	aa1603e0 	mov	x0, x22
    2b0c:	d63f0100 	blr	x8
    2b10:	17ffffac 	b	29c0 <stmmac_open+0x6b0>
    2b14:	d2800000 	mov	x0, #0x0                   	// #0
    2b18:	d2800001 	mov	x1, #0x0                   	// #0
    2b1c:	f2a00000 	movk	x0, #0x0, lsl #16
    2b20:	f2a00001 	movk	x1, #0x0, lsl #16
    2b24:	f2c00000 	movk	x0, #0x0, lsl #32
    2b28:	f2c00001 	movk	x1, #0x0, lsl #32
    2b2c:	f2e00000 	movk	x0, #0x0, lsl #48
    2b30:	f2e00001 	movk	x1, #0x0, lsl #48
    2b34:	94000000 	bl	0 <printk>
    2b38:	12800175 	mov	w21, #0xfffffff4            	// #-12
    2b3c:	f9400bf7 	ldr	x23, [sp,#16]
    2b40:	3500023c 	cbnz	w28, 2b84 <stmmac_open+0x874>
    2b44:	1400002c 	b	2bf4 <stmmac_open+0x8e4>
    2b48:	d2800000 	mov	x0, #0x0                   	// #0
    2b4c:	d2800001 	mov	x1, #0x0                   	// #0
    2b50:	f2a00000 	movk	x0, #0x0, lsl #16
    2b54:	f2a00001 	movk	x1, #0x0, lsl #16
    2b58:	f2c00000 	movk	x0, #0x0, lsl #32
    2b5c:	f2c00001 	movk	x1, #0x0, lsl #32
    2b60:	f2e00000 	movk	x0, #0x0, lsl #48
    2b64:	f2e00001 	movk	x1, #0x0, lsl #48
    2b68:	94000000 	bl	0 <printk>
    2b6c:	52800021 	mov	w1, #0x1                   	// #1
    2b70:	aa1703e0 	mov	x0, x23
    2b74:	94000000 	bl	0 <__dev_kfree_skb_any>
    2b78:	128002b5 	mov	w21, #0xffffffea            	// #-22
    2b7c:	f9400bf7 	ldr	x23, [sp,#16]
    2b80:	340003bc 	cbz	w28, 2bf4 <stmmac_open+0x8e4>
    2b84:	d1000794 	sub	x20, x28, #0x1
    2b88:	14000007 	b	2ba4 <stmmac_open+0x894>
    2b8c:	52800021 	mov	w1, #0x1                   	// #1
    2b90:	94000000 	bl	0 <__dev_kfree_skb_any>
    2b94:	f944ea68 	ldr	x8, [x19,#2512]
    2b98:	f834791f 	str	xzr, [x8,x20,lsl #3]
    2b9c:	d1000694 	sub	x20, x20, #0x1
    2ba0:	37f802b4 	tbnz	w20, #31, 2bf4 <stmmac_open+0x8e4>
    2ba4:	f944ea68 	ldr	x8, [x19,#2512]
    2ba8:	f8747900 	ldr	x0, [x8,x20,lsl #3]
    2bac:	b4ffff60 	cbz	x0, 2b98 <stmmac_open+0x888>
    2bb0:	f944fe69 	ldr	x9, [x19,#2552]
    2bb4:	f9458e68 	ldr	x8, [x19,#2840]
    2bb8:	b949e262 	ldr	w2, [x19,#2528]
    2bbc:	f8747921 	ldr	x1, [x9,x20,lsl #3]
    2bc0:	b4000068 	cbz	x8, 2bcc <stmmac_open+0x8bc>
    2bc4:	f9412509 	ldr	x9, [x8,#584]
    2bc8:	b5000049 	cbnz	x9, 2bd0 <stmmac_open+0x8c0>
    2bcc:	aa1b03e9 	mov	x9, x27
    2bd0:	f9401529 	ldr	x9, [x9,#40]
    2bd4:	b4fffdc9 	cbz	x9, 2b8c <stmmac_open+0x87c>
    2bd8:	52800043 	mov	w3, #0x2                   	// #2
    2bdc:	aa0803e0 	mov	x0, x8
    2be0:	aa1f03e4 	mov	x4, xzr
    2be4:	d63f0120 	blr	x9
    2be8:	f944ea68 	ldr	x8, [x19,#2512]
    2bec:	f8747900 	ldr	x0, [x8,x20,lsl #3]
    2bf0:	17ffffe7 	b	2b8c <stmmac_open+0x87c>
    2bf4:	d2800000 	mov	x0, #0x0                   	// #0
    2bf8:	d2800001 	mov	x1, #0x0                   	// #0
    2bfc:	f2a00000 	movk	x0, #0x0, lsl #16
    2c00:	f2a00001 	movk	x1, #0x0, lsl #16
    2c04:	f2c00000 	movk	x0, #0x0, lsl #32
    2c08:	f2c00001 	movk	x1, #0x0, lsl #32
    2c0c:	f2e00000 	movk	x0, #0x0, lsl #48
    2c10:	f2e00001 	movk	x1, #0x0, lsl #48
    2c14:	94000000 	bl	0 <printk>
    2c18:	aa1703e0 	mov	x0, x23
    2c1c:	94000758 	bl	497c <free_dma_desc_resources>
    2c20:	f945a260 	ldr	x0, [x19,#2880]
    2c24:	b5ffe8e0 	cbnz	x0, 2940 <stmmac_open+0x630>
    2c28:	17ffff47 	b	2944 <stmmac_open+0x634>
    2c2c:	51080388 	sub	w8, w28, #0x200
    2c30:	b909de68 	str	w8, [x19,#2524]
    2c34:	b9400fe8 	ldr	w8, [sp,#12]
    2c38:	b909da7f 	str	wzr, [x19,#2520]
    2c3c:	f9400bf7 	ldr	x23, [sp,#16]
    2c40:	b9000308 	str	w8, [x24]
    2c44:	b951b268 	ldr	w8, [x19,#4528]
    2c48:	7100051f 	cmp	w8, #0x1
    2c4c:	540003e1 	b.ne	2cc8 <stmmac_open+0x9b8>
    2c50:	f9459268 	ldr	x8, [x19,#2848]
    2c54:	b951b669 	ldr	w9, [x19,#4532]
    2c58:	f9400d08 	ldr	x8, [x8,#24]
    2c5c:	f9400108 	ldr	x8, [x8]
    2c60:	340001a9 	cbz	w9, 2c94 <stmmac_open+0x984>
    2c64:	f944e660 	ldr	x0, [x19,#2504]
    2c68:	f9450261 	ldr	x1, [x19,#2560]
    2c6c:	52804002 	mov	w2, #0x200                 	// #512
    2c70:	52800023 	mov	w3, #0x1                   	// #1
    2c74:	d63f0100 	blr	x8
    2c78:	f9459268 	ldr	x8, [x19,#2848]
    2c7c:	f9448260 	ldr	x0, [x19,#2304]
    2c80:	f9449e61 	ldr	x1, [x19,#2360]
    2c84:	52804002 	mov	w2, #0x200                 	// #512
    2c88:	f9400d08 	ldr	x8, [x8,#24]
    2c8c:	52800023 	mov	w3, #0x1                   	// #1
    2c90:	1400000c 	b	2cc0 <stmmac_open+0x9b0>
    2c94:	f944e260 	ldr	x0, [x19,#2496]
    2c98:	f9450261 	ldr	x1, [x19,#2560]
    2c9c:	52804002 	mov	w2, #0x200                 	// #512
    2ca0:	2a1f03e3 	mov	w3, wzr
    2ca4:	d63f0100 	blr	x8
    2ca8:	f9459268 	ldr	x8, [x19,#2848]
    2cac:	f9448660 	ldr	x0, [x19,#2312]
    2cb0:	f9449e61 	ldr	x1, [x19,#2360]
    2cb4:	52804002 	mov	w2, #0x200                 	// #512
    2cb8:	f9400d08 	ldr	x8, [x8,#24]
    2cbc:	2a1f03e3 	mov	w3, wzr
    2cc0:	f9400108 	ldr	x8, [x8]
    2cc4:	d63f0100 	blr	x8
    2cc8:	aa1f03e8 	mov	x8, xzr
    2ccc:	aa1f03e9 	mov	x9, xzr
    2cd0:	aa1f03ea 	mov	x10, xzr
    2cd4:	aa1f03eb 	mov	x11, xzr
    2cd8:	91242274 	add	x20, x19, #0x908
    2cdc:	b951b66c 	ldr	w12, [x19,#4532]
    2ce0:	3500030c 	cbnz	w12, 2d40 <stmmac_open+0xa30>
    2ce4:	1400001a 	b	2d4c <stmmac_open+0xa3c>
    2ce8:	b900099f 	str	wzr, [x12,#8]
    2cec:	f9449a6c 	ldr	x12, [x19,#2352]
    2cf0:	9100414a 	add	x10, x10, #0x10
    2cf4:	9100056b 	add	x11, x11, #0x1
    2cf8:	f140095f 	cmp	x10, #0x2, lsl #12
    2cfc:	f828699f 	str	xzr, [x12,x8]
    2d00:	f9449a6c 	ldr	x12, [x19,#2352]
    2d04:	8b08018c 	add	x12, x12, x8
    2d08:	3900219f 	strb	wzr, [x12,#8]
    2d0c:	f9449a6c 	ldr	x12, [x19,#2352]
    2d10:	8b08018c 	add	x12, x12, x8
    2d14:	b9000d9f 	str	wzr, [x12,#12]
    2d18:	f9449a6c 	ldr	x12, [x19,#2352]
    2d1c:	8b08018c 	add	x12, x12, x8
    2d20:	3900419f 	strb	wzr, [x12,#16]
    2d24:	f9448a6c 	ldr	x12, [x19,#2320]
    2d28:	91006108 	add	x8, x8, #0x18
    2d2c:	f829699f 	str	xzr, [x12,x9]
    2d30:	91002129 	add	x9, x9, #0x8
    2d34:	540001c0 	b.eq	2d6c <stmmac_open+0xa5c>
    2d38:	b951b66c 	ldr	w12, [x19,#4532]
    2d3c:	3400008c 	cbz	w12, 2d4c <stmmac_open+0xa3c>
    2d40:	f94002ec 	ldr	x12, [x23]
    2d44:	8b0b158c 	add	x12, x12, x11, lsl #5
    2d48:	14000003 	b	2d54 <stmmac_open+0xa44>
    2d4c:	f940028c 	ldr	x12, [x20]
    2d50:	8b0a018c 	add	x12, x12, x10
    2d54:	b951266d 	ldr	w13, [x19,#4388]
    2d58:	710101bf 	cmp	w13, #0x40
    2d5c:	54fffc6b 	b.lt	2ce8 <stmmac_open+0x9d8>
    2d60:	f900019f 	str	xzr, [x12]
    2d64:	b9000d9f 	str	wzr, [x12,#12]
    2d68:	17ffffe0 	b	2ce8 <stmmac_open+0x9d8>
    2d6c:	f9458a68 	ldr	x8, [x19,#2832]
    2d70:	6f00e400 	movi	v0.2d, #0x0
    2d74:	fd048e60 	str	d0, [x19,#2328]
    2d78:	52800020 	mov	w0, #0x1                   	// #1
    2d7c:	f941e115 	ldr	x21, [x8,#960]
    2d80:	910242a1 	add	x1, x21, #0x90
    2d84:	94000000 	bl	0 <clear_bit>
    2d88:	910302a0 	add	x0, x21, #0xc0
    2d8c:	94000000 	bl	0 <dql_reset>
    2d90:	aa1703e0 	mov	x0, x23
    2d94:	97fffb4e 	bl	1acc <stmmac_clear_descriptors>
    2d98:	52822528 	mov	w8, #0x1129                	// #4393
    2d9c:	38686a68 	ldrb	w8, [x19,x8]
    2da0:	362802a8 	tbz	w8, #5, 2df4 <stmmac_open+0xae4>
    2da4:	b951b668 	ldr	w8, [x19,#4532]
    2da8:	f9459269 	ldr	x9, [x19,#2848]
    2dac:	52804001 	mov	w1, #0x200                 	// #512
    2db0:	52800022 	mov	w2, #0x1                   	// #1
    2db4:	7100011f 	cmp	w8, #0x0
    2db8:	f9400528 	ldr	x8, [x9,#8]
    2dbc:	f9400fe9 	ldr	x9, [sp,#24]
    2dc0:	9a97028a 	csel	x10, x20, x23, eq
    2dc4:	f9400155 	ldr	x21, [x10]
    2dc8:	f9404d08 	ldr	x8, [x8,#152]
    2dcc:	9a990129 	csel	x9, x9, x25, eq
    2dd0:	f9400120 	ldr	x0, [x9]
    2dd4:	d63f0100 	blr	x8
    2dd8:	f9459268 	ldr	x8, [x19,#2848]
    2ddc:	52804001 	mov	w1, #0x200                 	// #512
    2de0:	aa1503e0 	mov	x0, x21
    2de4:	2a1f03e2 	mov	w2, wzr
    2de8:	f9400508 	ldr	x8, [x8,#8]
    2dec:	f9404d08 	ldr	x8, [x8,#152]
    2df0:	d63f0100 	blr	x8
    2df4:	52800021 	mov	w1, #0x1                   	// #1
    2df8:	aa1303e0 	mov	x0, x19
    2dfc:	97fffb6a 	bl	1ba4 <stmmac_hw_setup>
    2e00:	37f80a60 	tbnz	w0, #31, 2f4c <stmmac_open+0xc3c>
    2e04:	d2800008 	mov	x8, #0x0                   	// #0
    2e08:	f2a00008 	movk	x8, #0x0, lsl #16
    2e0c:	f2c00008 	movk	x8, #0x0, lsl #32
    2e10:	f2e00008 	movk	x8, #0x0, lsl #48
    2e14:	fd400100 	ldr	d0, [x8]
    2e18:	91254275 	add	x21, x19, #0x950
    2e1c:	91249268 	add	x8, x19, #0x924
    2e20:	aa1503e0 	mov	x0, x21
    2e24:	2a1f03e1 	mov	w1, wzr
    2e28:	aa1f03e2 	mov	x2, xzr
    2e2c:	aa1f03e3 	mov	x3, xzr
    2e30:	fd000100 	str	d0, [x8]
    2e34:	94000000 	bl	0 <init_timer_key>
    2e38:	d2800008 	mov	x8, #0x0                   	// #0
    2e3c:	f2a00008 	movk	x8, #0x0, lsl #16
    2e40:	f2c00008 	movk	x8, #0x0, lsl #32
    2e44:	f2e00008 	movk	x8, #0x0, lsl #48
    2e48:	f9400114 	ldr	x20, [x8]
    2e4c:	b9492a60 	ldr	w0, [x19,#2344]
    2e50:	94000000 	bl	0 <__usecs_to_jiffies>
    2e54:	d2800009 	mov	x9, #0x0                   	// #0
    2e58:	f2a00009 	movk	x9, #0x0, lsl #16
    2e5c:	f2c00009 	movk	x9, #0x0, lsl #32
    2e60:	8b140008 	add	x8, x0, x20
    2e64:	f2e00009 	movk	x9, #0x0, lsl #48
    2e68:	aa1503e0 	mov	x0, x21
    2e6c:	f904ba77 	str	x23, [x19,#2416]
    2e70:	f904b268 	str	x8, [x19,#2400]
    2e74:	f904b669 	str	x9, [x19,#2408]
    2e78:	94000000 	bl	0 <add_timer>
    2e7c:	f945a260 	ldr	x0, [x19,#2880]
    2e80:	b4000040 	cbz	x0, 2e88 <stmmac_open+0xb78>
    2e84:	94000000 	bl	0 <phy_start>
    2e88:	d2800016 	mov	x22, #0x0                   	// #0
    2e8c:	b9404260 	ldr	w0, [x19,#64]
    2e90:	f2a00016 	movk	x22, #0x0, lsl #16
    2e94:	f2c00016 	movk	x22, #0x0, lsl #32
    2e98:	f2e00016 	movk	x22, #0x0, lsl #48
    2e9c:	52801003 	mov	w3, #0x80                  	// #128
    2ea0:	aa1603e1 	mov	x1, x22
    2ea4:	aa1f03e2 	mov	x2, xzr
    2ea8:	aa1303e4 	mov	x4, x19
    2eac:	aa1303e5 	mov	x5, x19
    2eb0:	94000000 	bl	0 <request_threaded_irq>
    2eb4:	37f80660 	tbnz	w0, #31, 2f80 <stmmac_open+0xc70>
    2eb8:	b9513260 	ldr	w0, [x19,#4400]
    2ebc:	b9404268 	ldr	w8, [x19,#64]
    2ec0:	6b08001f 	cmp	w0, w8
    2ec4:	54000100 	b.eq	2ee4 <stmmac_open+0xbd4>
    2ec8:	52801003 	mov	w3, #0x80                  	// #128
    2ecc:	aa1603e1 	mov	x1, x22
    2ed0:	aa1f03e2 	mov	x2, xzr
    2ed4:	aa1303e4 	mov	x4, x19
    2ed8:	aa1303e5 	mov	x5, x19
    2edc:	94000000 	bl	0 <request_threaded_irq>
    2ee0:	37f80940 	tbnz	w0, #31, 3008 <stmmac_open+0xcf8>
    2ee4:	b951a260 	ldr	w0, [x19,#4512]
    2ee8:	7100041f 	cmp	w0, #0x1
    2eec:	5400010b 	b.lt	2f0c <stmmac_open+0xbfc>
    2ef0:	52801003 	mov	w3, #0x80                  	// #128
    2ef4:	aa1603e1 	mov	x1, x22
    2ef8:	aa1f03e2 	mov	x2, xzr
    2efc:	aa1303e4 	mov	x4, x19
    2f00:	aa1303e5 	mov	x5, x19
    2f04:	94000000 	bl	0 <request_threaded_irq>
    2f08:	37f805a0 	tbnz	w0, #31, 2fbc <stmmac_open+0xcac>
    2f0c:	f9452a68 	ldr	x8, [x19,#2640]
    2f10:	36000528 	tbz	w8, #0, 2fb4 <stmmac_open+0xca4>
    2f14:	d5033bbf 	dmb	ish
    2f18:	91294274 	add	x20, x19, #0xa50
    2f1c:	2a1f03e0 	mov	w0, wzr
    2f20:	aa1403e1 	mov	x1, x20
    2f24:	94000000 	bl	0 <clear_bit>
    2f28:	52800040 	mov	w0, #0x2                   	// #2
    2f2c:	aa1403e1 	mov	x1, x20
    2f30:	94000000 	bl	0 <clear_bit>
    2f34:	f941e268 	ldr	x8, [x19,#960]
    2f38:	2a1f03e0 	mov	w0, wzr
    2f3c:	91024101 	add	x1, x8, #0x90
    2f40:	94000000 	bl	0 <clear_bit>
    2f44:	2a1f03f5 	mov	w21, wzr
    2f48:	17fffe7f 	b	2944 <stmmac_open+0x634>
    2f4c:	2a0003f5 	mov	w21, w0
    2f50:	d2800000 	mov	x0, #0x0                   	// #0
    2f54:	d2800001 	mov	x1, #0x0                   	// #0
    2f58:	f2a00000 	movk	x0, #0x0, lsl #16
    2f5c:	f2a00001 	movk	x1, #0x0, lsl #16
    2f60:	f2c00000 	movk	x0, #0x0, lsl #32
    2f64:	f2c00001 	movk	x1, #0x0, lsl #32
    2f68:	f2e00000 	movk	x0, #0x0, lsl #48
    2f6c:	17ffff29 	b	2c10 <stmmac_open+0x900>
    2f70:	d4210000 	brk	#0x800
    2f74:	17fffe3a 	b	285c <stmmac_open+0x54c>
    2f78:	d4210000 	brk	#0x800
    2f7c:	17fffe4f 	b	28b8 <stmmac_open+0x5a8>
    2f80:	2a0003f5 	mov	w21, w0
    2f84:	b9404262 	ldr	w2, [x19,#64]
    2f88:	d2800000 	mov	x0, #0x0                   	// #0
    2f8c:	d2800001 	mov	x1, #0x0                   	// #0
    2f90:	f2a00000 	movk	x0, #0x0, lsl #16
    2f94:	f2a00001 	movk	x1, #0x0, lsl #16
    2f98:	f2c00000 	movk	x0, #0x0, lsl #32
    2f9c:	f2c00001 	movk	x1, #0x0, lsl #32
    2fa0:	f2e00000 	movk	x0, #0x0, lsl #48
    2fa4:	f2e00001 	movk	x1, #0x0, lsl #48
    2fa8:	2a1503e3 	mov	w3, w21
    2fac:	94000000 	bl	0 <printk>
    2fb0:	17ffff1a 	b	2c18 <stmmac_open+0x908>
    2fb4:	d4210000 	brk	#0x800
    2fb8:	14000000 	b	2fb8 <stmmac_open+0xca8>
    2fbc:	2a0003f5 	mov	w21, w0
    2fc0:	b951a262 	ldr	w2, [x19,#4512]
    2fc4:	d2800000 	mov	x0, #0x0                   	// #0
    2fc8:	d2800001 	mov	x1, #0x0                   	// #0
    2fcc:	f2a00000 	movk	x0, #0x0, lsl #16
    2fd0:	f2a00001 	movk	x1, #0x0, lsl #16
    2fd4:	f2c00000 	movk	x0, #0x0, lsl #32
    2fd8:	f2c00001 	movk	x1, #0x0, lsl #32
    2fdc:	f2e00000 	movk	x0, #0x0, lsl #48
    2fe0:	f2e00001 	movk	x1, #0x0, lsl #48
    2fe4:	2a1503e3 	mov	w3, w21
    2fe8:	94000000 	bl	0 <printk>
    2fec:	b9513260 	ldr	w0, [x19,#4400]
    2ff0:	b9404268 	ldr	w8, [x19,#64]
    2ff4:	6b08001f 	cmp	w0, w8
    2ff8:	54000200 	b.eq	3038 <stmmac_open+0xd28>
    2ffc:	aa1303e1 	mov	x1, x19
    3000:	94000000 	bl	0 <free_irq>
    3004:	1400000d 	b	3038 <stmmac_open+0xd28>
    3008:	2a0003f5 	mov	w21, w0
    300c:	b9513262 	ldr	w2, [x19,#4400]
    3010:	d2800000 	mov	x0, #0x0                   	// #0
    3014:	d2800001 	mov	x1, #0x0                   	// #0
    3018:	f2a00000 	movk	x0, #0x0, lsl #16
    301c:	f2a00001 	movk	x1, #0x0, lsl #16
    3020:	f2c00000 	movk	x0, #0x0, lsl #32
    3024:	f2c00001 	movk	x1, #0x0, lsl #32
    3028:	f2e00000 	movk	x0, #0x0, lsl #48
    302c:	f2e00001 	movk	x1, #0x0, lsl #48
    3030:	2a1503e3 	mov	w3, w21
    3034:	94000000 	bl	0 <printk>
    3038:	b9404260 	ldr	w0, [x19,#64]
    303c:	aa1303e1 	mov	x1, x19
    3040:	94000000 	bl	0 <free_irq>
    3044:	f9400bf7 	ldr	x23, [sp,#16]
    3048:	17fffef4 	b	2c18 <stmmac_open+0x908>

000000000000304c <stmmac_release>:
    304c:	a9be4ff4 	stp	x20, x19, [sp,#-32]!
    3050:	a9017bfd 	stp	x29, x30, [sp,#16]
    3054:	910043fd 	add	x29, sp, #0x10
    3058:	aa0003f3 	mov	x19, x0
    305c:	94000000 	bl	0 <_mcount>
    3060:	b951a668 	ldr	w8, [x19,#4516]
    3064:	34000088 	cbz	w8, 3074 <stmmac_release+0x28>
    3068:	52822b08 	mov	w8, #0x1158                	// #4440
    306c:	8b080260 	add	x0, x19, x8
    3070:	94000000 	bl	0 <del_timer_sync>
    3074:	f945a260 	ldr	x0, [x19,#2880]
    3078:	b40000a0 	cbz	x0, 308c <stmmac_release+0x40>
    307c:	94000000 	bl	0 <phy_stop>
    3080:	f945a260 	ldr	x0, [x19,#2880]
    3084:	94000000 	bl	0 <phy_disconnect>
    3088:	f905a27f 	str	xzr, [x19,#2880]
    308c:	f941e268 	ldr	x8, [x19,#960]
    3090:	2a1f03e0 	mov	w0, wzr
    3094:	91240274 	add	x20, x19, #0x900
    3098:	91024101 	add	x1, x8, #0x90
    309c:	94000000 	bl	0 <set_bit>
    30a0:	91290260 	add	x0, x19, #0xa40
    30a4:	94000000 	bl	0 <napi_disable>
    30a8:	91254260 	add	x0, x19, #0x950
    30ac:	94000000 	bl	0 <del_timer_sync>
    30b0:	b9404260 	ldr	w0, [x19,#64]
    30b4:	aa1303e1 	mov	x1, x19
    30b8:	94000000 	bl	0 <free_irq>
    30bc:	b9513260 	ldr	w0, [x19,#4400]
    30c0:	b9404268 	ldr	w8, [x19,#64]
    30c4:	6b08001f 	cmp	w0, w8
    30c8:	54000060 	b.eq	30d4 <stmmac_release+0x88>
    30cc:	aa1303e1 	mov	x1, x19
    30d0:	94000000 	bl	0 <free_irq>
    30d4:	b951a260 	ldr	w0, [x19,#4512]
    30d8:	7100041f 	cmp	w0, #0x1
    30dc:	5400006b 	b.lt	30e8 <stmmac_release+0x9c>
    30e0:	aa1303e1 	mov	x1, x19
    30e4:	94000000 	bl	0 <free_irq>
    30e8:	f9459268 	ldr	x8, [x19,#2848]
    30ec:	f9458660 	ldr	x0, [x19,#2824]
    30f0:	f9400908 	ldr	x8, [x8,#16]
    30f4:	f9402908 	ldr	x8, [x8,#80]
    30f8:	d63f0100 	blr	x8
    30fc:	f9459268 	ldr	x8, [x19,#2848]
    3100:	f9458660 	ldr	x0, [x19,#2824]
    3104:	f9400908 	ldr	x8, [x8,#16]
    3108:	f9403108 	ldr	x8, [x8,#96]
    310c:	d63f0100 	blr	x8
    3110:	aa1403e0 	mov	x0, x20
    3114:	9400061a 	bl	497c <free_dma_desc_resources>
    3118:	f9458660 	ldr	x0, [x19,#2824]
    311c:	2a1f03e1 	mov	w1, wzr
    3120:	94000000 	bl	83d8 <stmmac_set_mac>
    3124:	aa1303e0 	mov	x0, x19
    3128:	94000000 	bl	0 <netif_carrier_off>
    312c:	f9493e60 	ldr	x0, [x19,#4728]
    3130:	94000000 	bl	0 <debugfs_remove_recursive>
    3134:	f9491e73 	ldr	x19, [x19,#4664]
    3138:	b40000b3 	cbz	x19, 314c <stmmac_release+0x100>
    313c:	aa1303e0 	mov	x0, x19
    3140:	94000000 	bl	0 <clk_disable>
    3144:	aa1303e0 	mov	x0, x19
    3148:	94000000 	bl	0 <clk_unprepare>
    314c:	aa1403e0 	mov	x0, x20
    3150:	94000000 	bl	bf8c <stmmac_ptp_unregister>
    3154:	a9417bfd 	ldp	x29, x30, [sp,#16]
    3158:	2a1f03e0 	mov	w0, wzr
    315c:	a8c24ff4 	ldp	x20, x19, [sp],#32
    3160:	d65f03c0 	ret

0000000000003164 <stmmac_xmit>:
    3164:	d10303ff 	sub	sp, sp, #0xc0
    3168:	a9066ffc 	stp	x28, x27, [sp,#96]
    316c:	a90767fa 	stp	x26, x25, [sp,#112]
    3170:	a9085ff8 	stp	x24, x23, [sp,#128]
    3174:	a90957f6 	stp	x22, x21, [sp,#144]
    3178:	a90a4ff4 	stp	x20, x19, [sp,#160]
    317c:	a90b7bfd 	stp	x29, x30, [sp,#176]
    3180:	9102c3fd 	add	x29, sp, #0xb0
    3184:	aa0103f3 	mov	x19, x1
    3188:	aa0003f6 	mov	x22, x0
    318c:	94000000 	bl	0 <_mcount>
    3190:	f940c2c8 	ldr	x8, [x22,#384]
    3194:	b94172c9 	ldr	w9, [x22,#368]
    3198:	b940a2d7 	ldr	w23, [x22,#160]
    319c:	b940b2d8 	ldr	w24, [x22,#176]
    31a0:	f9002ff6 	str	x22, [sp,#88]
    31a4:	8b090109 	add	x9, x8, x9
    31a8:	7940052a 	ldrh	w10, [x9,#2]
    31ac:	39400134 	ldrb	w20, [x9]
    31b0:	d2800009 	mov	x9, #0x0                   	// #0
    31b4:	a90353e9 	stp	x9, x20, [sp,#48]
    31b8:	3400062a 	cbz	w10, 327c <stmmac_xmit+0x118>
    31bc:	39666269 	ldrb	w9, [x19,#2456]
    31c0:	340005e9 	cbz	w9, 327c <stmmac_xmit+0x118>
    31c4:	7942b2c9 	ldrh	w9, [x22,#344]
    31c8:	8b090108 	add	x8, x8, x9
    31cc:	39402508 	ldrb	w8, [x8,#9]
    31d0:	7100191f 	cmp	w8, #0x6
    31d4:	54000541 	b.ne	327c <stmmac_xmit+0x118>
    31d8:	91252277 	add	x23, x19, #0x948
    31dc:	aa1703e0 	mov	x0, x23
    31e0:	94000000 	bl	0 <_raw_spin_lock>
    31e4:	f940c2c8 	ldr	x8, [x22,#384]
    31e8:	7942aeca 	ldrh	w10, [x22,#342]
    31ec:	b94192cb 	ldr	w11, [x22,#400]
    31f0:	b940a2c9 	ldr	w9, [x22,#160]
    31f4:	b9491a75 	ldr	w21, [x19,#2328]
    31f8:	8b0a010a 	add	x10, x8, x10
    31fc:	4b0b014b 	sub	w11, w10, w11
    3200:	7940194a 	ldrh	w10, [x10,#12]
    3204:	b9491e6c 	ldr	w12, [x19,#2332]
    3208:	2a3503ed 	mvn	w13, w21
    320c:	53027d4a 	lsr	w10, w10, #2
    3210:	121e0d4a 	and	w10, w10, #0x3c
    3214:	0b0a016a 	add	w10, w11, w10
    3218:	12001d58 	and	w24, w10, #0xff
    321c:	5280022b 	mov	w11, #0x11                  	// #17
    3220:	4b18012a 	sub	w10, w9, w24
    3224:	72a0008b 	movk	w11, #0x4, lsl #16
    3228:	9bab7d4b 	umull	x11, w10, w11
    322c:	0b0d018d 	add	w13, w12, w13
    3230:	6b15018c 	subs	w12, w12, w21
    3234:	d360fd6b 	lsr	x11, x11, #32
    3238:	1107fd8c 	add	w12, w12, #0x1ff
    323c:	4b0b014a 	sub	w10, w10, w11
    3240:	1a8c81ac 	csel	w12, w13, w12, hi
    3244:	0b4a056a 	add	w10, w11, w10, lsr #1
    3248:	6b4a359f 	cmp	w12, w10, lsr #13
    324c:	54006b09 	b.ls	3fac <stmmac_xmit+0xe48>
    3250:	b94172ca 	ldr	w10, [x22,#368]
    3254:	b940b2cb 	ldr	w11, [x22,#176]
    3258:	8b0a0108 	add	x8, x8, x10
    325c:	7940051a 	ldrh	w26, [x8,#2]
    3260:	b9527268 	ldr	w8, [x19,#4720]
    3264:	4b0b0129 	sub	w9, w9, w11
    3268:	4b180139 	sub	w25, w9, w24
    326c:	6b1a011f 	cmp	w8, w26
    3270:	540013a1 	b.ne	34e4 <stmmac_xmit+0x380>
    3274:	f9002bff 	str	xzr, [sp,#80]
    3278:	140000a8 	b	3518 <stmmac_xmit+0x3b4>
    327c:	91252275 	add	x21, x19, #0x948
    3280:	aa1503e0 	mov	x0, x21
    3284:	94000000 	bl	0 <_raw_spin_lock>
    3288:	b9491a7a 	ldr	w26, [x19,#2328]
    328c:	b9491e68 	ldr	w8, [x19,#2332]
    3290:	2a3a03e9 	mvn	w9, w26
    3294:	6b1a010a 	subs	w10, w8, w26
    3298:	0b090108 	add	w8, w8, w9
    329c:	1107fd49 	add	w9, w10, #0x1ff
    32a0:	1a898108 	csel	w8, w8, w9, hi
    32a4:	6b14011f 	cmp	w8, w20
    32a8:	54004449 	b.ls	3b30 <stmmac_xmit+0x9cc>
    32ac:	39653268 	ldrb	w8, [x19,#2380]
    32b0:	91240269 	add	x9, x19, #0x900
    32b4:	f9002be9 	str	x9, [sp,#80]
    32b8:	b90023f7 	str	w23, [sp,#32]
    32bc:	34000148 	cbz	w8, 32e4 <stmmac_xmit+0x180>
    32c0:	f9459260 	ldr	x0, [x19,#2848]
    32c4:	f9400008 	ldr	x8, [x0]
    32c8:	f9402908 	ldr	x8, [x8,#80]
    32cc:	d63f0100 	blr	x8
    32d0:	52822b08 	mov	w8, #0x1158                	// #4440
    32d4:	8b080260 	add	x0, x19, x8
    32d8:	94000000 	bl	0 <del_timer_sync>
    32dc:	b9491a7a 	ldr	w26, [x19,#2328]
    32e0:	3925327f 	strb	wzr, [x19,#2380]
    32e4:	7941f2c8 	ldrh	w8, [x22,#248]
    32e8:	b951b669 	ldr	w9, [x19,#4532]
    32ec:	b9001bf8 	str	w24, [sp,#24]
    32f0:	12180508 	and	w8, w8, #0x300
    32f4:	710c011f 	cmp	w8, #0x300
    32f8:	1a9f17f7 	cset	w23, eq
    32fc:	b9004be8 	str	w8, [sp,#72]
    3300:	340043c9 	cbz	w9, 3b78 <stmmac_xmit+0xa14>
    3304:	f9402be8 	ldr	x8, [sp,#80]
    3308:	93407f49 	sxtw	x9, w26
    330c:	f9400108 	ldr	x8, [x8]
    3310:	8b091519 	add	x25, x8, x9, lsl #5
    3314:	f9448a68 	ldr	x8, [x19,#2320]
    3318:	f90017f5 	str	x21, [sp,#40]
    331c:	f90007fa 	str	x26, [sp,#8]
    3320:	f83a5916 	str	x22, [x8,w26,uxtw #3]
    3324:	f947c268 	ldr	x8, [x19,#3968]
    3328:	b9403901 	ldr	w1, [x8,#56]
    332c:	340000e1 	cbz	w1, 3348 <stmmac_xmit+0x1e4>
    3330:	f9459268 	ldr	x8, [x19,#2848]
    3334:	b940a2c0 	ldr	w0, [x22,#160]
    3338:	f9400d08 	ldr	x8, [x8,#24]
    333c:	f9400508 	ldr	x8, [x8,#8]
    3340:	d63f0100 	blr	x8
    3344:	35004200 	cbnz	w0, 3b84 <stmmac_xmit+0xa20>
    3348:	b90017ff 	str	wzr, [sp,#20]
    334c:	f90003f9 	str	x25, [sp]
    3350:	340043f4 	cbz	w20, 3bcc <stmmac_xmit+0xa68>
    3354:	51000688 	sub	w8, w20, #0x1
    3358:	d37cee89 	lsl	x9, x20, #4
    335c:	f9401bf4 	ldr	x20, [sp,#48]
    3360:	aa1f03f5 	mov	x21, xzr
    3364:	d37ced18 	lsl	x24, x8, #4
    3368:	f90023e9 	str	x9, [sp,#64]
    336c:	f2a00014 	movk	x20, #0x0, lsl #16
    3370:	f2c00014 	movk	x20, #0x0, lsl #32
    3374:	f2e00014 	movk	x20, #0x0, lsl #48
    3378:	1400002f 	b	3434 <stmmac_xmit+0x2d0>
    337c:	aa1403e9 	mov	x9, x20
    3380:	f9403929 	ldr	x9, [x9,#112]
    3384:	aa0803e0 	mov	x0, x8
    3388:	aa1703e1 	mov	x1, x23
    338c:	d63f0120 	blr	x9
    3390:	35005060 	cbnz	w0, 3d9c <stmmac_xmit+0xc38>
    3394:	f9448a68 	ldr	x8, [x19,#2320]
    3398:	8b3a4749 	add	x9, x26, w26, uxtw #1
    339c:	d37df129 	lsl	x9, x9, #3
    33a0:	b9404bea 	ldr	w10, [sp,#72]
    33a4:	f83a591f 	str	xzr, [x8,w26,uxtw #3]
    33a8:	f9449a68 	ldr	x8, [x19,#2352]
    33ac:	eb15031f 	cmp	x24, x21
    33b0:	1a9f17e6 	cset	w6, eq
    33b4:	710c015f 	cmp	w10, #0x300
    33b8:	f8296917 	str	x23, [x8,x9]
    33bc:	b9512668 	ldr	w8, [x19,#4388]
    33c0:	1a9f17e3 	cset	w3, eq
    33c4:	5280002a 	mov	w10, #0x1                   	// #1
    33c8:	52800025 	mov	w5, #0x1                   	// #1
    33cc:	7101011f 	cmp	w8, #0x40
    33d0:	1a9fa7e8 	cset	w8, lt
    33d4:	d37df108 	lsl	x8, x8, #3
    33d8:	b8286b3c 	str	w28, [x25,x8]
    33dc:	f9449a68 	ldr	x8, [x19,#2352]
    33e0:	aa1903e0 	mov	x0, x25
    33e4:	2a1f03e1 	mov	w1, wzr
    33e8:	2a1b03e2 	mov	w2, w27
    33ec:	8b090108 	add	x8, x8, x9
    33f0:	3900210a 	strb	w10, [x8,#8]
    33f4:	f9449a68 	ldr	x8, [x19,#2352]
    33f8:	8b090108 	add	x8, x8, x9
    33fc:	b9000d1b 	str	w27, [x8,#12]
    3400:	f9449a68 	ldr	x8, [x19,#2352]
    3404:	8b090108 	add	x8, x8, x9
    3408:	39004116 	strb	w22, [x8,#16]
    340c:	f9459268 	ldr	x8, [x19,#2848]
    3410:	b951b264 	ldr	w4, [x19,#4528]
    3414:	f9400508 	ldr	x8, [x8,#8]
    3418:	f9400908 	ldr	x8, [x8,#16]
    341c:	d63f0100 	blr	x8
    3420:	f94023e8 	ldr	x8, [sp,#64]
    3424:	f9402ff6 	ldr	x22, [sp,#88]
    3428:	910042b5 	add	x21, x21, #0x10
    342c:	eb15011f 	cmp	x8, x21
    3430:	54003ce0 	b.eq	3bcc <stmmac_xmit+0xa68>
    3434:	f940c2c8 	ldr	x8, [x22,#384]
    3438:	b94172c9 	ldr	w9, [x22,#368]
    343c:	eb15031f 	cmp	x24, x21
    3440:	1100074b 	add	w11, w26, #0x1
    3444:	1a9f17f6 	cset	w22, eq
    3448:	8b09010a 	add	x10, x8, x9
    344c:	8b15014a 	add	x10, x10, x21
    3450:	b9403d5b 	ldr	w27, [x10,#60]
    3454:	b951b66a 	ldr	w10, [x19,#4532]
    3458:	1200217a 	and	w26, w11, #0x1ff
    345c:	93407f63 	sxtw	x3, w27
    3460:	340003ca 	cbz	w10, 34d8 <stmmac_xmit+0x374>
    3464:	f9402bea 	ldr	x10, [sp,#80]
    3468:	f940014a 	ldr	x10, [x10]
    346c:	8b1a1559 	add	x25, x10, x26, lsl #5
    3470:	8b090108 	add	x8, x8, x9
    3474:	8b150108 	add	x8, x8, x21
    3478:	f9458e60 	ldr	x0, [x19,#2840]
    347c:	f9401901 	ldr	x1, [x8,#48]
    3480:	b9403902 	ldr	w2, [x8,#56]
    3484:	b4000060 	cbz	x0, 3490 <stmmac_xmit+0x32c>
    3488:	f9412408 	ldr	x8, [x0,#584]
    348c:	b5000048 	cbnz	x8, 3494 <stmmac_xmit+0x330>
    3490:	aa1403e8 	mov	x8, x20
    3494:	f9401108 	ldr	x8, [x8,#32]
    3498:	52800024 	mov	w4, #0x1                   	// #1
    349c:	aa1f03e5 	mov	x5, xzr
    34a0:	d63f0100 	blr	x8
    34a4:	f9458e68 	ldr	x8, [x19,#2840]
    34a8:	aa0003fc 	mov	x28, x0
    34ac:	92407c17 	and	x23, x0, #0xffffffff
    34b0:	b4000068 	cbz	x8, 34bc <stmmac_xmit+0x358>
    34b4:	f9412509 	ldr	x9, [x8,#584]
    34b8:	b5000049 	cbnz	x9, 34c0 <stmmac_xmit+0x35c>
    34bc:	aa1403e9 	mov	x9, x20
    34c0:	f9403929 	ldr	x9, [x9,#112]
    34c4:	b4fff689 	cbz	x9, 3394 <stmmac_xmit+0x230>
    34c8:	b4fff5a8 	cbz	x8, 337c <stmmac_xmit+0x218>
    34cc:	f9412509 	ldr	x9, [x8,#584]
    34d0:	b5fff589 	cbnz	x9, 3380 <stmmac_xmit+0x21c>
    34d4:	17ffffaa 	b	337c <stmmac_xmit+0x218>
    34d8:	f944866a 	ldr	x10, [x19,#2312]
    34dc:	8b3a5159 	add	x25, x10, w26, uxtw #4
    34e0:	17ffffe4 	b	3470 <stmmac_xmit+0x30c>
    34e4:	f9459268 	ldr	x8, [x19,#2848]
    34e8:	f9448669 	ldr	x9, [x19,#2312]
    34ec:	2a1a03e1 	mov	w1, w26
    34f0:	f9400508 	ldr	x8, [x8,#8]
    34f4:	8b151120 	add	x0, x9, x21, lsl #4
    34f8:	f9002be0 	str	x0, [sp,#80]
    34fc:	f9405108 	ldr	x8, [x8,#160]
    3500:	d63f0100 	blr	x8
    3504:	b9491a68 	ldr	w8, [x19,#2328]
    3508:	b912727a 	str	w26, [x19,#4720]
    350c:	11000508 	add	w8, w8, #0x1
    3510:	12002115 	and	w21, w8, #0x1ff
    3514:	b9091a75 	str	w21, [x19,#2328]
    3518:	52822528 	mov	w8, #0x1129                	// #4393
    351c:	38686a68 	ldrb	w8, [x19,x8]
    3520:	36000368 	tbz	w8, #0, 358c <stmmac_xmit+0x428>
    3524:	f940c2c8 	ldr	x8, [x22,#384]
    3528:	7942aec9 	ldrh	w9, [x22,#342]
    352c:	d2800000 	mov	x0, #0x0                   	// #0
    3530:	d2800001 	mov	x1, #0x0                   	// #0
    3534:	f2a00000 	movk	x0, #0x0, lsl #16
    3538:	8b090108 	add	x8, x8, x9
    353c:	79401908 	ldrh	w8, [x8,#12]
    3540:	f2a00001 	movk	x1, #0x0, lsl #16
    3544:	f2c00000 	movk	x0, #0x0, lsl #32
    3548:	f2c00001 	movk	x1, #0x0, lsl #32
    354c:	53027d08 	lsr	w8, w8, #2
    3550:	121e0d02 	and	w2, w8, #0x3c
    3554:	f2e00000 	movk	x0, #0x0, lsl #48
    3558:	f2e00001 	movk	x1, #0x0, lsl #48
    355c:	2a1803e3 	mov	w3, w24
    3560:	2a1903e4 	mov	w4, w25
    3564:	2a1a03e5 	mov	w5, w26
    3568:	94000000 	bl	0 <printk>
    356c:	b940a2c1 	ldr	w1, [x22,#160]
    3570:	b940b2c2 	ldr	w2, [x22,#176]
    3574:	d2800000 	mov	x0, #0x0                   	// #0
    3578:	f2a00000 	movk	x0, #0x0, lsl #16
    357c:	f2c00000 	movk	x0, #0x0, lsl #32
    3580:	f2e00000 	movk	x0, #0x0, lsl #48
    3584:	94000000 	bl	0 <printk>
    3588:	b9491a75 	ldr	w21, [x19,#2328]
    358c:	b940a2c9 	ldr	w9, [x22,#160]
    3590:	b940b2ca 	ldr	w10, [x22,#176]
    3594:	f9448674 	ldr	x20, [x19,#2312]
    3598:	f9458e60 	ldr	x0, [x19,#2840]
    359c:	f940cac8 	ldr	x8, [x22,#400]
    35a0:	4b0a0123 	sub	w3, w9, w10
    35a4:	b4000060 	cbz	x0, 35b0 <stmmac_xmit+0x44c>
    35a8:	f9412409 	ldr	x9, [x0,#584]
    35ac:	b50000a9 	cbnz	x9, 35c0 <stmmac_xmit+0x45c>
    35b0:	f9401be9 	ldr	x9, [sp,#48]
    35b4:	f2a00009 	movk	x9, #0x0, lsl #16
    35b8:	f2c00009 	movk	x9, #0x0, lsl #32
    35bc:	f2e00009 	movk	x9, #0x0, lsl #48
    35c0:	f9401129 	ldr	x9, [x9,#32]
    35c4:	d346fd0a 	lsr	x10, x8, #6
    35c8:	d2dff7eb 	mov	x11, #0xffbf00000000        	// #281195803836416
    35cc:	927a654a 	and	x10, x10, #0xffffffc0
    35d0:	f2ffffeb 	movk	x11, #0xffff, lsl #48
    35d4:	aa0b0141 	orr	x1, x10, x11
    35d8:	92402d02 	and	x2, x8, #0xfff
    35dc:	52800024 	mov	w4, #0x1                   	// #1
    35e0:	aa1f03e5 	mov	x5, xzr
    35e4:	d63f0120 	blr	x9
    35e8:	f9458e68 	ldr	x8, [x19,#2840]
    35ec:	aa0003fc 	mov	x28, x0
    35f0:	92407c1b 	and	x27, x0, #0xffffffff
    35f4:	b4000068 	cbz	x8, 3600 <stmmac_xmit+0x49c>
    35f8:	f9412509 	ldr	x9, [x8,#584]
    35fc:	b50000a9 	cbnz	x9, 3610 <stmmac_xmit+0x4ac>
    3600:	f9401be9 	ldr	x9, [sp,#48]
    3604:	f2a00009 	movk	x9, #0x0, lsl #16
    3608:	f2c00009 	movk	x9, #0x0, lsl #32
    360c:	f2e00009 	movk	x9, #0x0, lsl #48
    3610:	f9403929 	ldr	x9, [x9,#112]
    3614:	b40002e9 	cbz	x9, 3670 <stmmac_xmit+0x50c>
    3618:	b4000068 	cbz	x8, 3624 <stmmac_xmit+0x4c0>
    361c:	f9412509 	ldr	x9, [x8,#584]
    3620:	b50000a9 	cbnz	x9, 3634 <stmmac_xmit+0x4d0>
    3624:	f9401be9 	ldr	x9, [sp,#48]
    3628:	f2a00009 	movk	x9, #0x0, lsl #16
    362c:	f2c00009 	movk	x9, #0x0, lsl #32
    3630:	f2e00009 	movk	x9, #0x0, lsl #48
    3634:	f9403929 	ldr	x9, [x9,#112]
    3638:	aa0803e0 	mov	x0, x8
    363c:	aa1b03e1 	mov	x1, x27
    3640:	d63f0120 	blr	x9
    3644:	34000160 	cbz	w0, 3670 <stmmac_xmit+0x50c>
    3648:	aa1703e0 	mov	x0, x23
    364c:	94000000 	bl	0 <_raw_spin_unlock>
    3650:	f9458e60 	ldr	x0, [x19,#2840]
    3654:	d2800001 	mov	x1, #0x0                   	// #0
    3658:	f2a00001 	movk	x1, #0x0, lsl #16
    365c:	f2c00001 	movk	x1, #0x0, lsl #32
    3660:	f2e00001 	movk	x1, #0x0, lsl #48
    3664:	94000000 	bl	0 <dev_err>
    3668:	aa1603e0 	mov	x0, x22
    366c:	140001d5 	b	3dc0 <stmmac_xmit+0xc5c>
    3670:	f9449a68 	ldr	x8, [x19,#2352]
    3674:	2a1503fa 	mov	w26, w21
    3678:	8b1a0749 	add	x9, x26, x26, lsl #1
    367c:	d37df129 	lsl	x9, x9, #3
    3680:	f829691b 	str	x27, [x8,x9]
    3684:	b940a2c8 	ldr	w8, [x22,#160]
    3688:	b940b2ca 	ldr	w10, [x22,#176]
    368c:	f9449a6b 	ldr	x11, [x19,#2352]
    3690:	f90027f7 	str	x23, [sp,#72]
    3694:	f9401ff7 	ldr	x23, [sp,#56]
    3698:	4b0a0108 	sub	w8, w8, w10
    369c:	8b090169 	add	x9, x11, x9
    36a0:	b9000d28 	str	w8, [x9,#12]
    36a4:	f9448a68 	ldr	x8, [x19,#2320]
    36a8:	8b355289 	add	x9, x20, w21, uxtw #4
    36ac:	f9000fe9 	str	x9, [sp,#24]
    36b0:	f83a7916 	str	x22, [x8,x26,lsl #3]
    36b4:	b900013c 	str	w28, [x9]
    36b8:	34000499 	cbz	w25, 3748 <stmmac_xmit+0x5e4>
    36bc:	8b1a1289 	add	x9, x20, x26, lsl #4
    36c0:	1287ffd4 	mov	w20, #0xffffc001            	// #-16383
    36c4:	0b140335 	add	w21, w25, w20
    36c8:	0b1c0308 	add	w8, w24, w28
    36cc:	710006bf 	cmp	w21, #0x1
    36d0:	b9000528 	str	w8, [x9,#4]
    36d4:	540003ab 	b.lt	3748 <stmmac_xmit+0x5e4>
    36d8:	5287fff6 	mov	w22, #0x3fff                	// #16383
    36dc:	b9491a68 	ldr	w8, [x19,#2328]
    36e0:	f9448669 	ldr	x9, [x19,#2312]
    36e4:	710002ff 	cmp	w23, #0x0
    36e8:	52800024 	mov	w4, #0x1                   	// #1
    36ec:	11000508 	add	w8, w8, #0x1
    36f0:	12002108 	and	w8, w8, #0x1ff
    36f4:	8b285120 	add	x0, x9, w8, uxtw #4
    36f8:	b9091a68 	str	w8, [x19,#2328]
    36fc:	b900001c 	str	w28, [x0]
    3700:	f9459268 	ldr	x8, [x19,#2848]
    3704:	1a9f17e9 	cset	w9, eq
    3708:	6b1602bf 	cmp	w21, w22
    370c:	1a96b2a2 	csel	w2, w21, w22, lt
    3710:	f9400508 	ldr	x8, [x8,#8]
    3714:	714012bf 	cmp	w21, #0x4, lsl #12
    3718:	1a9fa7ea 	cset	w10, lt
    371c:	0a0a0125 	and	w5, w9, w10
    3720:	f9400d08 	ldr	x8, [x8,#24]
    3724:	2a1f03e1 	mov	w1, wzr
    3728:	2a1f03e3 	mov	w3, wzr
    372c:	2a1f03e6 	mov	w6, wzr
    3730:	2a1f03e7 	mov	w7, wzr
    3734:	d63f0100 	blr	x8
    3738:	0b1402b5 	add	w21, w21, w20
    373c:	710002bf 	cmp	w21, #0x0
    3740:	0b16039c 	add	w28, w28, w22
    3744:	54fffccc 	b.gt	36dc <stmmac_xmit+0x578>
    3748:	f90013fa 	str	x26, [sp,#32]
    374c:	b9002bf9 	str	w25, [sp,#40]
    3750:	b90043f8 	str	w24, [sp,#64]
    3754:	34000ab7 	cbz	w23, 38a8 <stmmac_xmit+0x744>
    3758:	f9401fe8 	ldr	x8, [sp,#56]
    375c:	aa1f03f4 	mov	x20, xzr
    3760:	5287fff9 	mov	w25, #0x3fff                	// #16383
    3764:	1287ffdb 	mov	w27, #0xffffc001            	// #-16383
    3768:	51000515 	sub	w21, w8, #0x1
    376c:	f9401be8 	ldr	x8, [sp,#48]
    3770:	52800318 	mov	w24, #0x18                  	// #24
    3774:	f2a00008 	movk	x8, #0x0, lsl #16
    3778:	f2c00008 	movk	x8, #0x0, lsl #32
    377c:	f2e00008 	movk	x8, #0x0, lsl #48
    3780:	f9001be8 	str	x8, [sp,#48]
    3784:	14000017 	b	37e0 <stmmac_xmit+0x67c>
    3788:	b9491a68 	ldr	w8, [x19,#2328]
    378c:	f9449a69 	ldr	x9, [x19,#2352]
    3790:	92407f8a 	and	x10, x28, #0xffffffff
    3794:	91000694 	add	x20, x20, #0x1
    3798:	9b187d08 	mul	x8, x8, x24
    379c:	f828692a 	str	x10, [x9,x8]
    37a0:	f9449a68 	ldr	x8, [x19,#2352]
    37a4:	b9491a69 	ldr	w9, [x19,#2328]
    37a8:	b940034a 	ldr	w10, [x26]
    37ac:	9b182128 	madd	x8, x9, x24, x8
    37b0:	b9000d0a 	str	w10, [x8,#12]
    37b4:	f9448a68 	ldr	x8, [x19,#2320]
    37b8:	b9491a69 	ldr	w9, [x19,#2328]
    37bc:	f829791f 	str	xzr, [x8,x9,lsl #3]
    37c0:	f9449a68 	ldr	x8, [x19,#2352]
    37c4:	b9491a69 	ldr	w9, [x19,#2328]
    37c8:	9b182128 	madd	x8, x9, x24, x8
    37cc:	f9401fe9 	ldr	x9, [sp,#56]
    37d0:	eb09029f 	cmp	x20, x9
    37d4:	52800029 	mov	w9, #0x1                   	// #1
    37d8:	39002109 	strb	w9, [x8,#8]
    37dc:	54000660 	b.eq	38a8 <stmmac_xmit+0x744>
    37e0:	f9402fe9 	ldr	x9, [sp,#88]
    37e4:	f9458e60 	ldr	x0, [x19,#2840]
    37e8:	f940c128 	ldr	x8, [x9,#384]
    37ec:	b9417129 	ldr	w9, [x9,#368]
    37f0:	8b090108 	add	x8, x8, x9
    37f4:	8b14111a 	add	x26, x8, x20, lsl #4
    37f8:	b843cf43 	ldr	w3, [x26,#60]!
    37fc:	f85f4341 	ldur	x1, [x26,#-12]
    3800:	b85fc342 	ldur	w2, [x26,#-4]
    3804:	b4000060 	cbz	x0, 3810 <stmmac_xmit+0x6ac>
    3808:	f9412408 	ldr	x8, [x0,#584]
    380c:	b5000048 	cbnz	x8, 3814 <stmmac_xmit+0x6b0>
    3810:	f9401be8 	ldr	x8, [sp,#48]
    3814:	f9401108 	ldr	x8, [x8,#32]
    3818:	52800024 	mov	w4, #0x1                   	// #1
    381c:	aa1f03e5 	mov	x5, xzr
    3820:	d63f0100 	blr	x8
    3824:	b9400357 	ldr	w23, [x26]
    3828:	aa0003fc 	mov	x28, x0
    382c:	710006ff 	cmp	w23, #0x1
    3830:	54fffacb 	b.lt	3788 <stmmac_xmit+0x624>
    3834:	2a1c03f6 	mov	w22, w28
    3838:	b9491a68 	ldr	w8, [x19,#2328]
    383c:	f9448669 	ldr	x9, [x19,#2312]
    3840:	eb15029f 	cmp	x20, x21
    3844:	52800024 	mov	w4, #0x1                   	// #1
    3848:	11000508 	add	w8, w8, #0x1
    384c:	12002108 	and	w8, w8, #0x1ff
    3850:	8b285120 	add	x0, x9, w8, uxtw #4
    3854:	b9091a68 	str	w8, [x19,#2328]
    3858:	b9000016 	str	w22, [x0]
    385c:	f9459268 	ldr	x8, [x19,#2848]
    3860:	1a9f17e9 	cset	w9, eq
    3864:	6b1902ff 	cmp	w23, w25
    3868:	1a99b2e2 	csel	w2, w23, w25, lt
    386c:	f9400508 	ldr	x8, [x8,#8]
    3870:	714012ff 	cmp	w23, #0x4, lsl #12
    3874:	1a9fa7ea 	cset	w10, lt
    3878:	0a0a0125 	and	w5, w9, w10
    387c:	f9400d08 	ldr	x8, [x8,#24]
    3880:	2a1f03e1 	mov	w1, wzr
    3884:	2a1f03e3 	mov	w3, wzr
    3888:	2a1f03e6 	mov	w6, wzr
    388c:	2a1f03e7 	mov	w7, wzr
    3890:	d63f0100 	blr	x8
    3894:	0b1b02f7 	add	w23, w23, w27
    3898:	710002ff 	cmp	w23, #0x0
    389c:	0b1902d6 	add	w22, w22, w25
    38a0:	54fffccc 	b.gt	3838 <stmmac_xmit+0x6d4>
    38a4:	17ffffb9 	b	3788 <stmmac_xmit+0x624>
    38a8:	f9449a68 	ldr	x8, [x19,#2352]
    38ac:	b9491a69 	ldr	w9, [x19,#2328]
    38b0:	5280030a 	mov	w10, #0x18                  	// #24
    38b4:	f9402ff5 	ldr	x21, [sp,#88]
    38b8:	9b0a2128 	madd	x8, x9, x10, x8
    38bc:	52800029 	mov	w9, #0x1                   	// #1
    38c0:	39004109 	strb	w9, [x8,#16]
    38c4:	b9491a68 	ldr	w8, [x19,#2328]
    38c8:	b9491e69 	ldr	w9, [x19,#2332]
    38cc:	11000508 	add	w8, w8, #0x1
    38d0:	1200210a 	and	w10, w8, #0x1ff
    38d4:	32175908 	orr	w8, w8, #0xfffffe00
    38d8:	52002108 	eor	w8, w8, #0x1ff
    38dc:	0b090108 	add	w8, w8, w9
    38e0:	6b0a0129 	subs	w9, w9, w10
    38e4:	1107fd29 	add	w9, w9, #0x1ff
    38e8:	1a898108 	csel	w8, w8, w9, hi
    38ec:	7100491f 	cmp	w8, #0x12
    38f0:	b9091a6a 	str	w10, [x19,#2328]
    38f4:	54003909 	b.ls	4014 <stmmac_xmit+0xeb0>
    38f8:	b940a2a8 	ldr	w8, [x21,#160]
    38fc:	f940a669 	ldr	x9, [x19,#328]
    3900:	f947ba6a 	ldr	x10, [x19,#3952]
    3904:	f9401ff6 	ldr	x22, [sp,#56]
    3908:	f94027f7 	ldr	x23, [sp,#72]
    390c:	8b080128 	add	x8, x9, x8
    3910:	f900a668 	str	x8, [x19,#328]
    3914:	b9492268 	ldr	w8, [x19,#2336]
    3918:	9100054a 	add	x10, x10, #0x1
    391c:	f947be69 	ldr	x9, [x19,#3960]
    3920:	f907ba6a 	str	x10, [x19,#3952]
    3924:	b949266a 	ldr	w10, [x19,#2340]
    3928:	f9400ffa 	ldr	x26, [sp,#24]
    392c:	0b0802c8 	add	w8, w22, w8
    3930:	11000508 	add	w8, w8, #0x1
    3934:	8b160129 	add	x9, x9, x22
    3938:	6b08015f 	cmp	w10, w8
    393c:	f907be69 	str	x9, [x19,#3960]
    3940:	b9092268 	str	w8, [x19,#2336]
    3944:	54003729 	b.ls	4028 <stmmac_xmit+0xec4>
    3948:	d2800008 	mov	x8, #0x0                   	// #0
    394c:	f2a00008 	movk	x8, #0x0, lsl #16
    3950:	f2c00008 	movk	x8, #0x0, lsl #32
    3954:	f2e00008 	movk	x8, #0x0, lsl #48
    3958:	f9400114 	ldr	x20, [x8]
    395c:	b9492a60 	ldr	w0, [x19,#2344]
    3960:	9125427c 	add	x28, x19, #0x950
    3964:	94000000 	bl	0 <__usecs_to_jiffies>
    3968:	8b140001 	add	x1, x0, x20
    396c:	aa1c03e0 	mov	x0, x28
    3970:	94000000 	bl	0 <mod_timer>
    3974:	b9494668 	ldr	w8, [x19,#2372]
    3978:	b94043f4 	ldr	w20, [sp,#64]
    397c:	b9402bf8 	ldr	w24, [sp,#40]
    3980:	f94013f9 	ldr	x25, [sp,#32]
    3984:	35000168 	cbnz	w8, 39b0 <stmmac_xmit+0x84c>
    3988:	f940c2a8 	ldr	x8, [x21,#384]
    398c:	b94172a9 	ldr	w9, [x21,#368]
    3990:	8b090108 	add	x8, x8, x9
    3994:	39400508 	ldrb	w8, [x8,#1]
    3998:	121f0508 	and	w8, w8, #0x6
    399c:	7100091f 	cmp	w8, #0x2
    39a0:	54000081 	b.ne	39b0 <stmmac_xmit+0x84c>
    39a4:	aa1503e0 	mov	x0, x21
    39a8:	aa1f03e1 	mov	x1, xzr
    39ac:	94000000 	bl	0 <skb_tstamp_tx>
    39b0:	f940c2a8 	ldr	x8, [x21,#384]
    39b4:	b94172a9 	ldr	w9, [x21,#368]
    39b8:	8b090109 	add	x9, x8, x9
    39bc:	3940052a 	ldrb	w10, [x9,#1]
    39c0:	3600006a 	tbz	w10, #0, 39cc <stmmac_xmit+0x868>
    39c4:	b949466b 	ldr	w11, [x19,#2372]
    39c8:	3500362b 	cbnz	w11, 408c <stmmac_xmit+0xf28>
    39cc:	f9459269 	ldr	x9, [x19,#2848]
    39d0:	7942aeac 	ldrh	w12, [x21,#342]
    39d4:	f9449a6a 	ldr	x10, [x19,#2352]
    39d8:	5280030b 	mov	w11, #0x18                  	// #24
    39dc:	f9400529 	ldr	x9, [x9,#8]
    39e0:	8b0c0108 	add	x8, x8, x12
    39e4:	b940a2ad 	ldr	w13, [x21,#160]
    39e8:	9b0b2b2a 	madd	x10, x25, x11, x10
    39ec:	79401908 	ldrh	w8, [x8,#12]
    39f0:	f9400d29 	ldr	x9, [x9,#24]
    39f4:	39404145 	ldrb	w5, [x10,#16]
    39f8:	4b1401a7 	sub	w7, w13, w20
    39fc:	53041d06 	ubfx	w6, w8, #4, #4
    3a00:	52800021 	mov	w1, #0x1                   	// #1
    3a04:	52800024 	mov	w4, #0x1                   	// #1
    3a08:	aa1a03e0 	mov	x0, x26
    3a0c:	2a1403e2 	mov	w2, w20
    3a10:	2a1803e3 	mov	w3, w24
    3a14:	d63f0120 	blr	x9
    3a18:	f9402be0 	ldr	x0, [sp,#80]
    3a1c:	b40000c0 	cbz	x0, 3a34 <stmmac_xmit+0x8d0>
    3a20:	d50332bf 	dmb	oshst
    3a24:	f9459268 	ldr	x8, [x19,#2848]
    3a28:	f9400508 	ldr	x8, [x8,#8]
    3a2c:	f9401108 	ldr	x8, [x8,#32]
    3a30:	d63f0100 	blr	x8
    3a34:	d5033abf 	dmb	ishst
    3a38:	52822528 	mov	w8, #0x1129                	// #4393
    3a3c:	38686a68 	ldrb	w8, [x19,x8]
    3a40:	362004e8 	tbz	w8, #4, 3adc <stmmac_xmit+0x978>
    3a44:	b9491a62 	ldr	w2, [x19,#2328]
    3a48:	b9491e63 	ldr	w3, [x19,#2332]
    3a4c:	d2800000 	mov	x0, #0x0                   	// #0
    3a50:	d2800001 	mov	x1, #0x0                   	// #0
    3a54:	f2a00000 	movk	x0, #0x0, lsl #16
    3a58:	f2a00001 	movk	x1, #0x0, lsl #16
    3a5c:	f2c00000 	movk	x0, #0x0, lsl #32
    3a60:	f2c00001 	movk	x1, #0x0, lsl #32
    3a64:	f2e00000 	movk	x0, #0x0, lsl #48
    3a68:	f2e00001 	movk	x1, #0x0, lsl #48
    3a6c:	2a1903e4 	mov	w4, w25
    3a70:	2a0203e5 	mov	w5, w2
    3a74:	aa1a03e6 	mov	x6, x26
    3a78:	2a1603e7 	mov	w7, w22
    3a7c:	94000000 	bl	0 <printk>
    3a80:	f9459268 	ldr	x8, [x19,#2848]
    3a84:	f9448660 	ldr	x0, [x19,#2312]
    3a88:	52804001 	mov	w1, #0x200                 	// #512
    3a8c:	2a1f03e2 	mov	w2, wzr
    3a90:	f9400508 	ldr	x8, [x8,#8]
    3a94:	f9404d08 	ldr	x8, [x8,#152]
    3a98:	d63f0100 	blr	x8
    3a9c:	d2800000 	mov	x0, #0x0                   	// #0
    3aa0:	f2a00000 	movk	x0, #0x0, lsl #16
    3aa4:	f2c00000 	movk	x0, #0x0, lsl #32
    3aa8:	f2e00000 	movk	x0, #0x0, lsl #48
    3aac:	94000000 	bl	0 <printk>
    3ab0:	b940a2a8 	ldr	w8, [x21,#160]
    3ab4:	b940b2a9 	ldr	w9, [x21,#176]
    3ab8:	f940caa2 	ldr	x2, [x21,#400]
    3abc:	d2800000 	mov	x0, #0x0                   	// #0
    3ac0:	f2a00000 	movk	x0, #0x0, lsl #16
    3ac4:	f2c00000 	movk	x0, #0x0, lsl #32
    3ac8:	4b090108 	sub	w8, w8, w9
    3acc:	93407d03 	sxtw	x3, w8
    3ad0:	f2e00000 	movk	x0, #0x0, lsl #48
    3ad4:	52800041 	mov	w1, #0x2                   	// #2
    3ad8:	94000000 	bl	0 <print_hex_dump_bytes>
    3adc:	b940a2a8 	ldr	w8, [x21,#160]
    3ae0:	531c7d09 	lsr	w9, w8, #28
    3ae4:	35002b69 	cbnz	w9, 4050 <stmmac_xmit+0xeec>
    3ae8:	f941e275 	ldr	x21, [x19,#960]
    3aec:	b900caa8 	str	w8, [x21,#200]
    3af0:	b940c2a9 	ldr	w9, [x21,#192]
    3af4:	0b080128 	add	w8, w9, w8
    3af8:	b900c2a8 	str	w8, [x21,#192]
    3afc:	b940c6a8 	ldr	w8, [x21,#196]
    3b00:	b940c2a9 	ldr	w9, [x21,#192]
    3b04:	6b09011f 	cmp	w8, w9
    3b08:	54002a84 	b.mi	4058 <stmmac_xmit+0xef4>
    3b0c:	f9459268 	ldr	x8, [x19,#2848]
    3b10:	f9458660 	ldr	x0, [x19,#2824]
    3b14:	b9526e61 	ldr	w1, [x19,#4716]
    3b18:	2a1f03e2 	mov	w2, wzr
    3b1c:	f9400908 	ldr	x8, [x8,#16]
    3b20:	f9404d08 	ldr	x8, [x8,#152]
    3b24:	d63f0100 	blr	x8
    3b28:	aa1703e0 	mov	x0, x23
    3b2c:	140000f6 	b	3f04 <stmmac_xmit+0xda0>
    3b30:	aa1503e0 	mov	x0, x21
    3b34:	94000000 	bl	0 <_raw_spin_unlock>
    3b38:	f941e261 	ldr	x1, [x19,#960]
    3b3c:	f8490c28 	ldr	x8, [x1,#144]!
    3b40:	37002148 	tbnz	w8, #0, 3f68 <stmmac_xmit+0xe04>
    3b44:	2a1f03e0 	mov	w0, wzr
    3b48:	94000000 	bl	0 <set_bit>
    3b4c:	d2800000 	mov	x0, #0x0                   	// #0
    3b50:	d2800001 	mov	x1, #0x0                   	// #0
    3b54:	f2a00000 	movk	x0, #0x0, lsl #16
    3b58:	f2a00001 	movk	x1, #0x0, lsl #16
    3b5c:	f2c00000 	movk	x0, #0x0, lsl #32
    3b60:	f2c00001 	movk	x1, #0x0, lsl #32
    3b64:	f2e00000 	movk	x0, #0x0, lsl #48
    3b68:	f2e00001 	movk	x1, #0x0, lsl #48
    3b6c:	94000000 	bl	0 <printk>
    3b70:	52800200 	mov	w0, #0x10                  	// #16
    3b74:	140000e6 	b	3f0c <stmmac_xmit+0xda8>
    3b78:	f9448668 	ldr	x8, [x19,#2312]
    3b7c:	8b3ad119 	add	x25, x8, w26, sxtw #4
    3b80:	17fffde5 	b	3314 <stmmac_xmit+0x1b0>
    3b84:	b9512668 	ldr	w8, [x19,#4388]
    3b88:	7100fd1f 	cmp	w8, #0x3f
    3b8c:	5400292c 	b.gt	40b0 <stmmac_xmit+0xf4c>
    3b90:	f9459268 	ldr	x8, [x19,#2848]
    3b94:	f9402be0 	ldr	x0, [sp,#80]
    3b98:	aa1603e1 	mov	x1, x22
    3b9c:	2a1703e2 	mov	w2, w23
    3ba0:	f9400d08 	ldr	x8, [x8,#24]
    3ba4:	f9400908 	ldr	x8, [x8,#16]
    3ba8:	d63f0100 	blr	x8
    3bac:	37f80f80 	tbnz	w0, #31, 3d9c <stmmac_xmit+0xc38>
    3bb0:	f9402ff6 	ldr	x22, [sp,#88]
    3bb4:	2a0003fa 	mov	w26, w0
    3bb8:	52800028 	mov	w8, #0x1                   	// #1
    3bbc:	b90017e8 	str	w8, [sp,#20]
    3bc0:	f9401ff4 	ldr	x20, [sp,#56]
    3bc4:	f90003f9 	str	x25, [sp]
    3bc8:	35ffbc74 	cbnz	w20, 3354 <stmmac_xmit+0x1f0>
    3bcc:	11000748 	add	w8, w26, #0x1
    3bd0:	12002108 	and	w8, w8, #0x1ff
    3bd4:	b9091a68 	str	w8, [x19,#2328]
    3bd8:	52822529 	mov	w9, #0x1129                	// #4393
    3bdc:	38696a69 	ldrb	w9, [x19,x9]
    3be0:	362002c9 	tbz	w9, #4, 3c38 <stmmac_xmit+0xad4>
    3be4:	b951b669 	ldr	w9, [x19,#4532]
    3be8:	f9459268 	ldr	x8, [x19,#2848]
    3bec:	9124226a 	add	x10, x19, #0x908
    3bf0:	52804001 	mov	w1, #0x200                 	// #512
    3bf4:	7100013f 	cmp	w9, #0x0
    3bf8:	f9402be9 	ldr	x9, [sp,#80]
    3bfc:	f9400508 	ldr	x8, [x8,#8]
    3c00:	2a1f03e2 	mov	w2, wzr
    3c04:	9a890149 	csel	x9, x10, x9, eq
    3c08:	f9400120 	ldr	x0, [x9]
    3c0c:	f9404d08 	ldr	x8, [x8,#152]
    3c10:	d63f0100 	blr	x8
    3c14:	f940cac2 	ldr	x2, [x22,#400]
    3c18:	b980a2c3 	ldrsw	x3, [x22,#160]
    3c1c:	d2800000 	mov	x0, #0x0                   	// #0
    3c20:	f2a00000 	movk	x0, #0x0, lsl #16
    3c24:	f2c00000 	movk	x0, #0x0, lsl #32
    3c28:	f2e00000 	movk	x0, #0x0, lsl #48
    3c2c:	52800041 	mov	w1, #0x2                   	// #2
    3c30:	94000000 	bl	0 <print_hex_dump_bytes>
    3c34:	b9491a68 	ldr	w8, [x19,#2328]
    3c38:	b9491e69 	ldr	w9, [x19,#2332]
    3c3c:	f9401ff5 	ldr	x21, [sp,#56]
    3c40:	2a2803ea 	mvn	w10, w8
    3c44:	6b080128 	subs	w8, w9, w8
    3c48:	0b0a012a 	add	w10, w9, w10
    3c4c:	1107fd08 	add	w8, w8, #0x1ff
    3c50:	1a888148 	csel	w8, w10, w8, hi
    3c54:	7100491f 	cmp	w8, #0x12
    3c58:	110006b4 	add	w20, w21, #0x1
    3c5c:	54001689 	b.ls	3f2c <stmmac_xmit+0xdc8>
    3c60:	b940a2c8 	ldr	w8, [x22,#160]
    3c64:	f940a669 	ldr	x9, [x19,#328]
    3c68:	b949226a 	ldr	w10, [x19,#2336]
    3c6c:	b949266b 	ldr	w11, [x19,#2340]
    3c70:	8b080128 	add	x8, x9, x8
    3c74:	0b0a0289 	add	w9, w20, w10
    3c78:	6b09017f 	cmp	w11, w9
    3c7c:	f900a668 	str	x8, [x19,#328]
    3c80:	b9092269 	str	w9, [x19,#2336]
    3c84:	540015e9 	b.ls	3f40 <stmmac_xmit+0xddc>
    3c88:	d2800008 	mov	x8, #0x0                   	// #0
    3c8c:	f2a00008 	movk	x8, #0x0, lsl #16
    3c90:	f2c00008 	movk	x8, #0x0, lsl #32
    3c94:	f2e00008 	movk	x8, #0x0, lsl #48
    3c98:	f9400114 	ldr	x20, [x8]
    3c9c:	b9492a60 	ldr	w0, [x19,#2344]
    3ca0:	91254277 	add	x23, x19, #0x950
    3ca4:	94000000 	bl	0 <__usecs_to_jiffies>
    3ca8:	8b140001 	add	x1, x0, x20
    3cac:	aa1703e0 	mov	x0, x23
    3cb0:	94000000 	bl	0 <mod_timer>
    3cb4:	b94023f4 	ldr	w20, [sp,#32]
    3cb8:	2942dff8 	ldp	w24, w23, [sp,#20]
    3cbc:	b9494668 	ldr	w8, [x19,#2372]
    3cc0:	35000168 	cbnz	w8, 3cec <stmmac_xmit+0xb88>
    3cc4:	f940c2c8 	ldr	x8, [x22,#384]
    3cc8:	b94172c9 	ldr	w9, [x22,#368]
    3ccc:	8b090108 	add	x8, x8, x9
    3cd0:	39400508 	ldrb	w8, [x8,#1]
    3cd4:	121f0508 	and	w8, w8, #0x6
    3cd8:	7100091f 	cmp	w8, #0x2
    3cdc:	54000081 	b.ne	3cec <stmmac_xmit+0xb88>
    3ce0:	aa1603e0 	mov	x0, x22
    3ce4:	aa1f03e1 	mov	x1, xzr
    3ce8:	94000000 	bl	0 <skb_tstamp_tx>
    3cec:	37000d78 	tbnz	w24, #0, 3e98 <stmmac_xmit+0xd34>
    3cf0:	f9458e60 	ldr	x0, [x19,#2840]
    3cf4:	f940cac8 	ldr	x8, [x22,#400]
    3cf8:	4b170298 	sub	w24, w20, w23
    3cfc:	710002bf 	cmp	w21, #0x0
    3d00:	1a9f17f4 	cset	w20, eq
    3d04:	2a1803e3 	mov	w3, w24
    3d08:	b4000060 	cbz	x0, 3d14 <stmmac_xmit+0xbb0>
    3d0c:	f9412409 	ldr	x9, [x0,#584]
    3d10:	b50000a9 	cbnz	x9, 3d24 <stmmac_xmit+0xbc0>
    3d14:	f9401be9 	ldr	x9, [sp,#48]
    3d18:	f2a00009 	movk	x9, #0x0, lsl #16
    3d1c:	f2c00009 	movk	x9, #0x0, lsl #32
    3d20:	f2e00009 	movk	x9, #0x0, lsl #48
    3d24:	f9401129 	ldr	x9, [x9,#32]
    3d28:	d346fd0a 	lsr	x10, x8, #6
    3d2c:	d2dff7eb 	mov	x11, #0xffbf00000000        	// #281195803836416
    3d30:	927a654a 	and	x10, x10, #0xffffffc0
    3d34:	f2ffffeb 	movk	x11, #0xffff, lsl #48
    3d38:	aa0b0141 	orr	x1, x10, x11
    3d3c:	92402d02 	and	x2, x8, #0xfff
    3d40:	52800024 	mov	w4, #0x1                   	// #1
    3d44:	aa1f03e5 	mov	x5, xzr
    3d48:	d63f0120 	blr	x9
    3d4c:	f9458e68 	ldr	x8, [x19,#2840]
    3d50:	aa0003f9 	mov	x25, x0
    3d54:	92407c1a 	and	x26, x0, #0xffffffff
    3d58:	b4000428 	cbz	x8, 3ddc <stmmac_xmit+0xc78>
    3d5c:	f9412509 	ldr	x9, [x8,#584]
    3d60:	b40003e9 	cbz	x9, 3ddc <stmmac_xmit+0xc78>
    3d64:	f9403929 	ldr	x9, [x9,#112]
    3d68:	b4000469 	cbz	x9, 3df4 <stmmac_xmit+0xc90>
    3d6c:	b4000068 	cbz	x8, 3d78 <stmmac_xmit+0xc14>
    3d70:	f9412509 	ldr	x9, [x8,#584]
    3d74:	b50000a9 	cbnz	x9, 3d88 <stmmac_xmit+0xc24>
    3d78:	f9401be9 	ldr	x9, [sp,#48]
    3d7c:	f2a00009 	movk	x9, #0x0, lsl #16
    3d80:	f2c00009 	movk	x9, #0x0, lsl #32
    3d84:	f2e00009 	movk	x9, #0x0, lsl #48
    3d88:	f9403929 	ldr	x9, [x9,#112]
    3d8c:	aa0803e0 	mov	x0, x8
    3d90:	aa1a03e1 	mov	x1, x26
    3d94:	d63f0120 	blr	x9
    3d98:	340002e0 	cbz	w0, 3df4 <stmmac_xmit+0xc90>
    3d9c:	f94017e0 	ldr	x0, [sp,#40]
    3da0:	94000000 	bl	0 <_raw_spin_unlock>
    3da4:	f9458e60 	ldr	x0, [x19,#2840]
    3da8:	d2800001 	mov	x1, #0x0                   	// #0
    3dac:	f2a00001 	movk	x1, #0x0, lsl #16
    3db0:	f2c00001 	movk	x1, #0x0, lsl #32
    3db4:	f2e00001 	movk	x1, #0x0, lsl #48
    3db8:	94000000 	bl	0 <dev_err>
    3dbc:	f9402fe0 	ldr	x0, [sp,#88]
    3dc0:	94000000 	bl	0 <consume_skb>
    3dc4:	f9458a68 	ldr	x8, [x19,#2832]
    3dc8:	2a1f03e0 	mov	w0, wzr
    3dcc:	f940b509 	ldr	x9, [x8,#360]
    3dd0:	91000529 	add	x9, x9, #0x1
    3dd4:	f900b509 	str	x9, [x8,#360]
    3dd8:	1400004d 	b	3f0c <stmmac_xmit+0xda8>
    3ddc:	f9401be9 	ldr	x9, [sp,#48]
    3de0:	f2a00009 	movk	x9, #0x0, lsl #16
    3de4:	f2c00009 	movk	x9, #0x0, lsl #32
    3de8:	f2e00009 	movk	x9, #0x0, lsl #48
    3dec:	f9403929 	ldr	x9, [x9,#112]
    3df0:	b5fffbe9 	cbnz	x9, 3d6c <stmmac_xmit+0xc08>
    3df4:	a94027f5 	ldp	x21, x9, [sp]
    3df8:	f9449a68 	ldr	x8, [x19,#2352]
    3dfc:	f9402ff6 	ldr	x22, [sp,#88]
    3e00:	2a0903e9 	mov	w9, w9
    3e04:	8b090529 	add	x9, x9, x9, lsl #1
    3e08:	d37df129 	lsl	x9, x9, #3
    3e0c:	f829691a 	str	x26, [x8,x9]
    3e10:	b9512668 	ldr	w8, [x19,#4388]
    3e14:	7101011f 	cmp	w8, #0x40
    3e18:	1a9fa7e8 	cset	w8, lt
    3e1c:	d37df108 	lsl	x8, x8, #3
    3e20:	b8286ab9 	str	w25, [x21,x8]
    3e24:	f9449a68 	ldr	x8, [x19,#2352]
    3e28:	8b090108 	add	x8, x8, x9
    3e2c:	b9000d18 	str	w24, [x8,#12]
    3e30:	f9449a68 	ldr	x8, [x19,#2352]
    3e34:	8b090108 	add	x8, x8, x9
    3e38:	39004114 	strb	w20, [x8,#16]
    3e3c:	f940c2c8 	ldr	x8, [x22,#384]
    3e40:	b94172c9 	ldr	w9, [x22,#368]
    3e44:	8b090108 	add	x8, x8, x9
    3e48:	39400509 	ldrb	w9, [x8,#1]
    3e4c:	36000069 	tbz	w9, #0, 3e58 <stmmac_xmit+0xcf4>
    3e50:	b949466a 	ldr	w10, [x19,#2372]
    3e54:	35000d0a 	cbnz	w10, 3ff4 <stmmac_xmit+0xe90>
    3e58:	f9459268 	ldr	x8, [x19,#2848]
    3e5c:	f9401fe9 	ldr	x9, [sp,#56]
    3e60:	b951b264 	ldr	w4, [x19,#4528]
    3e64:	52800021 	mov	w1, #0x1                   	// #1
    3e68:	f9400508 	ldr	x8, [x8,#8]
    3e6c:	7100013f 	cmp	w9, #0x0
    3e70:	b9404be9 	ldr	w9, [sp,#72]
    3e74:	1a9f17e6 	cset	w6, eq
    3e78:	f9400908 	ldr	x8, [x8,#16]
    3e7c:	52800025 	mov	w5, #0x1                   	// #1
    3e80:	710c013f 	cmp	w9, #0x300
    3e84:	1a9f17e3 	cset	w3, eq
    3e88:	aa1503e0 	mov	x0, x21
    3e8c:	2a1803e2 	mov	w2, w24
    3e90:	d63f0100 	blr	x8
    3e94:	d5033abf 	dmb	ishst
    3e98:	b940a2c8 	ldr	w8, [x22,#160]
    3e9c:	531c7d09 	lsr	w9, w8, #28
    3ea0:	35000689 	cbnz	w9, 3f70 <stmmac_xmit+0xe0c>
    3ea4:	f941e275 	ldr	x21, [x19,#960]
    3ea8:	b900caa8 	str	w8, [x21,#200]
    3eac:	b940c2a9 	ldr	w9, [x21,#192]
    3eb0:	0b080128 	add	w8, w9, w8
    3eb4:	b900c2a8 	str	w8, [x21,#192]
    3eb8:	b940c6a8 	ldr	w8, [x21,#196]
    3ebc:	b940c2a9 	ldr	w9, [x21,#192]
    3ec0:	6b09011f 	cmp	w8, w9
    3ec4:	540005a4 	b.mi	3f78 <stmmac_xmit+0xe14>
    3ec8:	f9459268 	ldr	x8, [x19,#2848]
    3ecc:	b9512669 	ldr	w9, [x19,#4388]
    3ed0:	f9400908 	ldr	x8, [x8,#16]
    3ed4:	7100fd3f 	cmp	w9, #0x3f
    3ed8:	540000ac 	b.gt	3eec <stmmac_xmit+0xd88>
    3edc:	f9401908 	ldr	x8, [x8,#48]
    3ee0:	f9458660 	ldr	x0, [x19,#2824]
    3ee4:	d63f0100 	blr	x8
    3ee8:	14000006 	b	3f00 <stmmac_xmit+0xd9c>
    3eec:	f9404d08 	ldr	x8, [x8,#152]
    3ef0:	f9458660 	ldr	x0, [x19,#2824]
    3ef4:	b9526e61 	ldr	w1, [x19,#4716]
    3ef8:	2a1f03e2 	mov	w2, wzr
    3efc:	d63f0100 	blr	x8
    3f00:	f94017e0 	ldr	x0, [sp,#40]
    3f04:	94000000 	bl	0 <_raw_spin_unlock>
    3f08:	2a1f03e0 	mov	w0, wzr
    3f0c:	a94b7bfd 	ldp	x29, x30, [sp,#176]
    3f10:	a94a4ff4 	ldp	x20, x19, [sp,#160]
    3f14:	a94957f6 	ldp	x22, x21, [sp,#144]
    3f18:	a9485ff8 	ldp	x24, x23, [sp,#128]
    3f1c:	a94767fa 	ldp	x26, x25, [sp,#112]
    3f20:	a9466ffc 	ldp	x28, x27, [sp,#96]
    3f24:	910303ff 	add	sp, sp, #0xc0
    3f28:	d65f03c0 	ret
    3f2c:	f941e268 	ldr	x8, [x19,#960]
    3f30:	2a1f03e0 	mov	w0, wzr
    3f34:	91024101 	add	x1, x8, #0x90
    3f38:	94000000 	bl	0 <set_bit>
    3f3c:	17ffff49 	b	3c60 <stmmac_xmit+0xafc>
    3f40:	f9459268 	ldr	x8, [x19,#2848]
    3f44:	b909227f 	str	wzr, [x19,#2336]
    3f48:	aa1903e0 	mov	x0, x25
    3f4c:	f9400508 	ldr	x8, [x8,#8]
    3f50:	f9401d08 	ldr	x8, [x8,#56]
    3f54:	d63f0100 	blr	x8
    3f58:	f946b668 	ldr	x8, [x19,#3432]
    3f5c:	91000508 	add	x8, x8, #0x1
    3f60:	f906b668 	str	x8, [x19,#3432]
    3f64:	17ffff54 	b	3cb4 <stmmac_xmit+0xb50>
    3f68:	52800200 	mov	w0, #0x10                  	// #16
    3f6c:	17ffffe8 	b	3f0c <stmmac_xmit+0xda8>
    3f70:	d4210000 	brk	#0x800
    3f74:	14000000 	b	3f74 <stmmac_xmit+0xe10>
    3f78:	910242b4 	add	x20, x21, #0x90
    3f7c:	52800020 	mov	w0, #0x1                   	// #1
    3f80:	aa1403e1 	mov	x1, x20
    3f84:	94000000 	bl	0 <set_bit>
    3f88:	d5033bbf 	dmb	ish
    3f8c:	b940c6a8 	ldr	w8, [x21,#196]
    3f90:	b940c2a9 	ldr	w9, [x21,#192]
    3f94:	6b09011f 	cmp	w8, w9
    3f98:	54fff984 	b.mi	3ec8 <stmmac_xmit+0xd64>
    3f9c:	52800020 	mov	w0, #0x1                   	// #1
    3fa0:	aa1403e1 	mov	x1, x20
    3fa4:	94000000 	bl	0 <clear_bit>
    3fa8:	17ffffc8 	b	3ec8 <stmmac_xmit+0xd64>
    3fac:	f941e261 	ldr	x1, [x19,#960]
    3fb0:	f8490c28 	ldr	x8, [x1,#144]!
    3fb4:	37000188 	tbnz	w8, #0, 3fe4 <stmmac_xmit+0xe80>
    3fb8:	2a1f03e0 	mov	w0, wzr
    3fbc:	94000000 	bl	0 <set_bit>
    3fc0:	d2800000 	mov	x0, #0x0                   	// #0
    3fc4:	d2800001 	mov	x1, #0x0                   	// #0
    3fc8:	f2a00000 	movk	x0, #0x0, lsl #16
    3fcc:	f2a00001 	movk	x1, #0x0, lsl #16
    3fd0:	f2c00000 	movk	x0, #0x0, lsl #32
    3fd4:	f2c00001 	movk	x1, #0x0, lsl #32
    3fd8:	f2e00000 	movk	x0, #0x0, lsl #48
    3fdc:	f2e00001 	movk	x1, #0x0, lsl #48
    3fe0:	94000000 	bl	0 <printk>
    3fe4:	aa1703e0 	mov	x0, x23
    3fe8:	94000000 	bl	0 <_raw_spin_unlock>
    3fec:	52800200 	mov	w0, #0x10                  	// #16
    3ff0:	17ffffc7 	b	3f0c <stmmac_xmit+0xda8>
    3ff4:	321e0129 	orr	w9, w9, #0x4
    3ff8:	39000509 	strb	w9, [x8,#1]
    3ffc:	f9459268 	ldr	x8, [x19,#2848]
    4000:	aa1503e0 	mov	x0, x21
    4004:	f9400508 	ldr	x8, [x8,#8]
    4008:	f9403d08 	ldr	x8, [x8,#120]
    400c:	d63f0100 	blr	x8
    4010:	17ffff92 	b	3e58 <stmmac_xmit+0xcf4>
    4014:	f941e268 	ldr	x8, [x19,#960]
    4018:	2a1f03e0 	mov	w0, wzr
    401c:	91024101 	add	x1, x8, #0x90
    4020:	94000000 	bl	0 <set_bit>
    4024:	17fffe35 	b	38f8 <stmmac_xmit+0x794>
    4028:	f9459268 	ldr	x8, [x19,#2848]
    402c:	b909227f 	str	wzr, [x19,#2336]
    4030:	aa1a03e0 	mov	x0, x26
    4034:	f9400508 	ldr	x8, [x8,#8]
    4038:	f9401d08 	ldr	x8, [x8,#56]
    403c:	d63f0100 	blr	x8
    4040:	f946b668 	ldr	x8, [x19,#3432]
    4044:	91000508 	add	x8, x8, #0x1
    4048:	f906b668 	str	x8, [x19,#3432]
    404c:	17fffe4a 	b	3974 <stmmac_xmit+0x810>
    4050:	d4210000 	brk	#0x800
    4054:	14000000 	b	4054 <stmmac_xmit+0xef0>
    4058:	910242b4 	add	x20, x21, #0x90
    405c:	52800020 	mov	w0, #0x1                   	// #1
    4060:	aa1403e1 	mov	x1, x20
    4064:	94000000 	bl	0 <set_bit>
    4068:	d5033bbf 	dmb	ish
    406c:	b940c6a8 	ldr	w8, [x21,#196]
    4070:	b940c2a9 	ldr	w9, [x21,#192]
    4074:	6b09011f 	cmp	w8, w9
    4078:	54ffd4a4 	b.mi	3b0c <stmmac_xmit+0x9a8>
    407c:	52800020 	mov	w0, #0x1                   	// #1
    4080:	aa1403e1 	mov	x1, x20
    4084:	94000000 	bl	0 <clear_bit>
    4088:	17fffea1 	b	3b0c <stmmac_xmit+0x9a8>
    408c:	321e0148 	orr	w8, w10, #0x4
    4090:	39000528 	strb	w8, [x9,#1]
    4094:	f9459268 	ldr	x8, [x19,#2848]
    4098:	aa1a03e0 	mov	x0, x26
    409c:	f9400508 	ldr	x8, [x8,#8]
    40a0:	f9403d08 	ldr	x8, [x8,#120]
    40a4:	d63f0100 	blr	x8
    40a8:	f940c2a8 	ldr	x8, [x21,#384]
    40ac:	17fffe48 	b	39cc <stmmac_xmit+0x868>
    40b0:	52800028 	mov	w8, #0x1                   	// #1
    40b4:	f94007fa 	ldr	x26, [sp,#8]
    40b8:	b90017e8 	str	w8, [sp,#20]
    40bc:	17fffec1 	b	3bc0 <stmmac_xmit+0xa5c>

00000000000040c0 <stmmac_set_mac_address>:
    40c0:	a9be4ff4 	stp	x20, x19, [sp,#-32]!
    40c4:	a9017bfd 	stp	x29, x30, [sp,#16]
    40c8:	910043fd 	add	x29, sp, #0x10
    40cc:	aa0103f3 	mov	x19, x1
    40d0:	aa0003f4 	mov	x20, x0
    40d4:	94000000 	bl	0 <_mcount>
    40d8:	aa1403e0 	mov	x0, x20
    40dc:	aa1303e1 	mov	x1, x19
    40e0:	94000000 	bl	0 <eth_mac_addr>
    40e4:	2a0003f3 	mov	w19, w0
    40e8:	35000100 	cbnz	w0, 4108 <stmmac_set_mac_address+0x48>
    40ec:	f9459280 	ldr	x0, [x20,#2848]
    40f0:	910cb289 	add	x9, x20, #0x32c
    40f4:	f9400121 	ldr	x1, [x9]
    40f8:	2a1f03e2 	mov	w2, wzr
    40fc:	f9400008 	ldr	x8, [x0]
    4100:	f9401d08 	ldr	x8, [x8,#56]
    4104:	d63f0100 	blr	x8
    4108:	a9417bfd 	ldp	x29, x30, [sp,#16]
    410c:	2a1303e0 	mov	w0, w19
    4110:	a8c24ff4 	ldp	x20, x19, [sp],#32
    4114:	d65f03c0 	ret

0000000000004118 <stmmac_ioctl>:
    4118:	d10143ff 	sub	sp, sp, #0x50
    411c:	a90257f6 	stp	x22, x21, [sp,#32]
    4120:	a9034ff4 	stp	x20, x19, [sp,#48]
    4124:	a9047bfd 	stp	x29, x30, [sp,#64]
    4128:	910103fd 	add	x29, sp, #0x40
    412c:	2a0203f5 	mov	w21, w2
    4130:	aa0103f3 	mov	x19, x1
    4134:	aa0003f4 	mov	x20, x0
    4138:	94000000 	bl	0 <_mcount>
    413c:	f9402688 	ldr	x8, [x20,#72]
    4140:	37000068 	tbnz	w8, #0, 414c <stmmac_ioctl+0x34>
    4144:	128002b5 	mov	w21, #0xffffffea            	// #-22
    4148:	1400010d 	b	457c <stmmac_ioctl+0x464>
    414c:	129128c8 	mov	w8, #0xffff76b9            	// #-35143
    4150:	0b0802a8 	add	w8, w21, w8
    4154:	71000d1f 	cmp	w8, #0x3
    4158:	54000102 	b.cs	4178 <stmmac_ioctl+0x60>
    415c:	f945a280 	ldr	x0, [x20,#2880]
    4160:	b4ffff20 	cbz	x0, 4144 <stmmac_ioctl+0x2c>
    4164:	aa1303e1 	mov	x1, x19
    4168:	2a1503e2 	mov	w2, w21
    416c:	94000000 	bl	0 <phy_mii_ioctl>
    4170:	2a0003f5 	mov	w21, w0
    4174:	14000102 	b	457c <stmmac_ioctl+0x464>
    4178:	52913608 	mov	w8, #0x89b0                	// #35248
    417c:	6b0802bf 	cmp	w21, w8
    4180:	540005e1 	b.ne	423c <stmmac_ioctl+0x124>
    4184:	b94fb288 	ldr	w8, [x20,#4016]
    4188:	35000068 	cbnz	w8, 4194 <stmmac_ioctl+0x7c>
    418c:	b9524688 	ldr	w8, [x20,#4676]
    4190:	340006a8 	cbz	w8, 4264 <stmmac_ioctl+0x14c>
    4194:	f9400a61 	ldr	x1, [x19,#16]
    4198:	d5384116 	mrs	x22, sp_el0
    419c:	f94006c8 	ldr	x8, [x22,#8]
    41a0:	aa0103e9 	mov	x9, x1
    41a4:	b1003129 	adds	x9, x9, #0xc
    41a8:	9a8883e8 	csel	x8, xzr, x8, hi
    41ac:	da9f3129 	csinv	x9, x9, xzr, cc
    41b0:	fa08013f 	sbcs	xzr, x9, x8
    41b4:	9a9f87e9 	cset	x9, ls
    41b8:	b4000469 	cbz	x9, 4244 <stmmac_ioctl+0x12c>
    41bc:	910043e0 	add	x0, sp, #0x10
    41c0:	52800182 	mov	w2, #0xc                   	// #12
    41c4:	94000000 	bl	0 <__arch_copy_from_user>
    41c8:	b5001e60 	cbnz	x0, 4594 <stmmac_ioctl+0x47c>
    41cc:	b94013e8 	ldr	w8, [sp,#16]
    41d0:	35fffba8 	cbnz	w8, 4144 <stmmac_ioctl+0x2c>
    41d4:	b94017e8 	ldr	w8, [sp,#20]
    41d8:	7100051f 	cmp	w8, #0x1
    41dc:	54000588 	b.hi	428c <stmmac_ioctl+0x174>
    41e0:	b952468a 	ldr	w10, [x20,#4676]
    41e4:	b9401be9 	ldr	w9, [sp,#24]
    41e8:	3400056a 	cbz	w10, 4294 <stmmac_ioctl+0x17c>
    41ec:	7100393f 	cmp	w9, #0xe
    41f0:	12800435 	mov	w21, #0xffffffde            	// #-34
    41f4:	54001c48 	b.hi	457c <stmmac_ioctl+0x464>
    41f8:	d280000a 	mov	x10, #0x0                   	// #0
    41fc:	f2a0000a 	movk	x10, #0x0, lsl #16
    4200:	f2c0000a 	movk	x10, #0x0, lsl #32
    4204:	2a0903e9 	mov	w9, w9
    4208:	f2e0000a 	movk	x10, #0x0, lsl #48
    420c:	1000008b 	adr	x11, 421c <stmmac_ioctl+0x104>
    4210:	3869694c 	ldrb	w12, [x10,x9]
    4214:	8b0c096b 	add	x11, x11, x12, lsl #2
    4218:	d61f0160 	br	x11
    421c:	2a1f03f1 	mov	w17, wzr
    4220:	2a1f03ee 	mov	w14, wzr
    4224:	2a1f03ef 	mov	w15, wzr
    4228:	2a1f03ed 	mov	w13, wzr
    422c:	2a1f03eb 	mov	w11, wzr
    4230:	2a1f03ec 	mov	w12, wzr
    4234:	2a1f03e9 	mov	w9, wzr
    4238:	14000027 	b	42d4 <stmmac_ioctl+0x1bc>
    423c:	12800bd5 	mov	w21, #0xffffffa1            	// #-95
    4240:	140000cf 	b	457c <stmmac_ioctl+0x464>
    4244:	52800182 	mov	w2, #0xc                   	// #12
    4248:	910043e8 	add	x8, sp, #0x10
    424c:	cb020108 	sub	x8, x8, x2
    4250:	91003100 	add	x0, x8, #0xc
    4254:	2a1f03e1 	mov	w1, wzr
    4258:	94000000 	bl	0 <memset>
    425c:	128001b5 	mov	w21, #0xfffffff2            	// #-14
    4260:	140000c7 	b	457c <stmmac_ioctl+0x464>
    4264:	f9458a80 	ldr	x0, [x20,#2832]
    4268:	d2800001 	mov	x1, #0x0                   	// #0
    426c:	f2a00001 	movk	x1, #0x0, lsl #16
    4270:	f2c00001 	movk	x1, #0x0, lsl #32
    4274:	f2e00001 	movk	x1, #0x0, lsl #48
    4278:	94000000 	bl	0 <netdev_alert>
    427c:	b909469f 	str	wzr, [x20,#2372]
    4280:	b909f29f 	str	wzr, [x20,#2544]
    4284:	12800bd5 	mov	w21, #0xffffffa1            	// #-95
    4288:	140000bd 	b	457c <stmmac_ioctl+0x464>
    428c:	12800435 	mov	w21, #0xffffffde            	// #-34
    4290:	140000bb 	b	457c <stmmac_ioctl+0x464>
    4294:	34000149 	cbz	w9, 42bc <stmmac_ioctl+0x1a4>
    4298:	2a1f03ee 	mov	w14, wzr
    429c:	2a1f03ef 	mov	w15, wzr
    42a0:	2a1f03ed 	mov	w13, wzr
    42a4:	2a1f03eb 	mov	w11, wzr
    42a8:	2a1f03ec 	mov	w12, wzr
    42ac:	2a1f03e9 	mov	w9, wzr
    42b0:	2a1f03ea 	mov	w10, wzr
    42b4:	52800071 	mov	w17, #0x3                   	// #3
    42b8:	14000035 	b	438c <stmmac_ioctl+0x274>
    42bc:	2a1f03f1 	mov	w17, wzr
    42c0:	2a1f03ee 	mov	w14, wzr
    42c4:	2a1f03ef 	mov	w15, wzr
    42c8:	2a1f03ed 	mov	w13, wzr
    42cc:	2a1f03eb 	mov	w11, wzr
    42d0:	2a1f03ec 	mov	w12, wzr
    42d4:	2a1f03ea 	mov	w10, wzr
    42d8:	b9001bff 	str	wzr, [sp,#24]
    42dc:	52804070 	mov	w16, #0x203                 	// #515
    42e0:	14000062 	b	4468 <stmmac_ioctl+0x350>
    42e4:	52800031 	mov	w17, #0x1                   	// #1
    42e8:	2a1f03ee 	mov	w14, wzr
    42ec:	2a1f03ef 	mov	w15, wzr
    42f0:	2a1f03ed 	mov	w13, wzr
    42f4:	2a1f03eb 	mov	w11, wzr
    42f8:	2a1f03ec 	mov	w12, wzr
    42fc:	2a1f03e9 	mov	w9, wzr
    4300:	2a1f03ea 	mov	w10, wzr
    4304:	b9001bf1 	str	w17, [sp,#24]
    4308:	52806070 	mov	w16, #0x303                 	// #771
    430c:	14000057 	b	4468 <stmmac_ioctl+0x350>
    4310:	5280006c 	mov	w12, #0x3                   	// #3
    4314:	b9001bec 	str	w12, [sp,#24]
    4318:	f947c28c 	ldr	x12, [x20,#3968]
    431c:	52a00071 	mov	w17, #0x30000               	// #196608
    4320:	52a00032 	mov	w18, #0x10000               	// #65536
    4324:	2a1f03ee 	mov	w14, wzr
    4328:	b940b18c 	ldr	w12, [x12,#176]
    432c:	2a1f03eb 	mov	w11, wzr
    4330:	2a1f03e9 	mov	w9, wzr
    4334:	2a1f03ea 	mov	w10, wzr
    4338:	7100019f 	cmp	w12, #0x0
    433c:	5282000d 	mov	w13, #0x1000                	// #4096
    4340:	5284000f 	mov	w15, #0x2000                	// #8192
    4344:	52804070 	mov	w16, #0x203                 	// #515
    4348:	1a91024c 	csel	w12, w18, w17, eq
    434c:	14000046 	b	4464 <stmmac_ioctl+0x34c>
    4350:	2a1f03ee 	mov	w14, wzr
    4354:	2a1f03eb 	mov	w11, wzr
    4358:	2a1f03ec 	mov	w12, wzr
    435c:	2a1f03e9 	mov	w9, wzr
    4360:	52800091 	mov	w17, #0x4                   	// #4
    4364:	5288000a 	mov	w10, #0x4000                	// #16384
    4368:	14000007 	b	4384 <stmmac_ioctl+0x26c>
    436c:	2a1f03ee 	mov	w14, wzr
    4370:	2a1f03eb 	mov	w11, wzr
    4374:	2a1f03ec 	mov	w12, wzr
    4378:	528000b1 	mov	w17, #0x5                   	// #5
    437c:	5288000a 	mov	w10, #0x4000                	// #16384
    4380:	52900009 	mov	w9, #0x8000                	// #32768
    4384:	5282000d 	mov	w13, #0x1000                	// #4096
    4388:	5284000f 	mov	w15, #0x2000                	// #8192
    438c:	52804070 	mov	w16, #0x203                 	// #515
    4390:	14000034 	b	4460 <stmmac_ioctl+0x348>
    4394:	528000cc 	mov	w12, #0x6                   	// #6
    4398:	b9001bec 	str	w12, [sp,#24]
    439c:	f947c28c 	ldr	x12, [x20,#3968]
    43a0:	2a1f03eb 	mov	w11, wzr
    43a4:	2a1f03e9 	mov	w9, wzr
    43a8:	2a1f03ea 	mov	w10, wzr
    43ac:	52a00071 	mov	w17, #0x30000               	// #196608
    43b0:	52a00032 	mov	w18, #0x10000               	// #65536
    43b4:	14000015 	b	4408 <stmmac_ioctl+0x2f0>
    43b8:	2a1f03eb 	mov	w11, wzr
    43bc:	2a1f03ec 	mov	w12, wzr
    43c0:	2a1f03e9 	mov	w9, wzr
    43c4:	528000f1 	mov	w17, #0x7                   	// #7
    43c8:	5288000a 	mov	w10, #0x4000                	// #16384
    43cc:	14000021 	b	4450 <stmmac_ioctl+0x338>
    43d0:	2a1f03eb 	mov	w11, wzr
    43d4:	2a1f03ec 	mov	w12, wzr
    43d8:	52800111 	mov	w17, #0x8                   	// #8
    43dc:	5288000a 	mov	w10, #0x4000                	// #16384
    43e0:	52900009 	mov	w9, #0x8000                	// #32768
    43e4:	1400001b 	b	4450 <stmmac_ioctl+0x338>
    43e8:	5280018b 	mov	w11, #0xc                   	// #12
    43ec:	b9001beb 	str	w11, [sp,#24]
    43f0:	f947c28c 	ldr	x12, [x20,#3968]
    43f4:	2a1f03e9 	mov	w9, wzr
    43f8:	2a1f03ea 	mov	w10, wzr
    43fc:	52a00071 	mov	w17, #0x30000               	// #196608
    4400:	52a00032 	mov	w18, #0x10000               	// #65536
    4404:	5281000b 	mov	w11, #0x800                 	// #2048
    4408:	b940b18c 	ldr	w12, [x12,#176]
    440c:	5282000d 	mov	w13, #0x1000                	// #4096
    4410:	5284000f 	mov	w15, #0x2000                	// #8192
    4414:	52804070 	mov	w16, #0x203                 	// #515
    4418:	7100019f 	cmp	w12, #0x0
    441c:	5280800e 	mov	w14, #0x400                 	// #1024
    4420:	1a91024c 	csel	w12, w18, w17, eq
    4424:	14000010 	b	4464 <stmmac_ioctl+0x34c>
    4428:	2a1f03ec 	mov	w12, wzr
    442c:	2a1f03e9 	mov	w9, wzr
    4430:	528001b1 	mov	w17, #0xd                   	// #13
    4434:	5288000a 	mov	w10, #0x4000                	// #16384
    4438:	14000005 	b	444c <stmmac_ioctl+0x334>
    443c:	2a1f03ec 	mov	w12, wzr
    4440:	528001d1 	mov	w17, #0xe                   	// #14
    4444:	5288000a 	mov	w10, #0x4000                	// #16384
    4448:	52900009 	mov	w9, #0x8000                	// #32768
    444c:	5281000b 	mov	w11, #0x800                 	// #2048
    4450:	5282000d 	mov	w13, #0x1000                	// #4096
    4454:	5284000f 	mov	w15, #0x2000                	// #8192
    4458:	52804070 	mov	w16, #0x203                 	// #515
    445c:	5280800e 	mov	w14, #0x400                 	// #1024
    4460:	b9001bf1 	str	w17, [sp,#24]
    4464:	52800031 	mov	w17, #0x1                   	// #1
    4468:	7100051f 	cmp	w8, #0x1
    446c:	1a9f17e8 	cset	w8, eq
    4470:	b909f291 	str	w17, [x20,#2544]
    4474:	b9094688 	str	w8, [x20,#2372]
    4478:	54000120 	b.eq	449c <stmmac_ioctl+0x384>
    447c:	37000111 	tbnz	w17, #0, 449c <stmmac_ioctl+0x384>
    4480:	f9459288 	ldr	x8, [x20,#2848]
    4484:	f9493280 	ldr	x0, [x20,#4704]
    4488:	2a1f03e1 	mov	w1, wzr
    448c:	f9401108 	ldr	x8, [x8,#32]
    4490:	f9400108 	ldr	x8, [x8]
    4494:	d63f0100 	blr	x8
    4498:	1400002a 	b	4540 <stmmac_ioctl+0x428>
    449c:	f9459288 	ldr	x8, [x20,#2848]
    44a0:	2a0e020e 	orr	w14, w16, w14
    44a4:	2a0f01ce 	orr	w14, w14, w15
    44a8:	2a0d01cd 	orr	w13, w14, w13
    44ac:	f9401108 	ldr	x8, [x8,#32]
    44b0:	2a0b01ab 	orr	w11, w13, w11
    44b4:	f9493280 	ldr	x0, [x20,#4704]
    44b8:	2a0c016b 	orr	w11, w11, w12
    44bc:	f9400108 	ldr	x8, [x8]
    44c0:	2a090169 	orr	w9, w11, w9
    44c4:	2a0a0121 	orr	w1, w9, w10
    44c8:	d63f0100 	blr	x8
    44cc:	f9459288 	ldr	x8, [x20,#2848]
    44d0:	f947c289 	ldr	x9, [x20,#3968]
    44d4:	f9493280 	ldr	x0, [x20,#4704]
    44d8:	b9524281 	ldr	w1, [x20,#4672]
    44dc:	f9401108 	ldr	x8, [x8,#32]
    44e0:	b940b122 	ldr	w2, [x9,#176]
    44e4:	f9400508 	ldr	x8, [x8,#8]
    44e8:	d63f0100 	blr	x8
    44ec:	52994008 	mov	w8, #0xca00                	// #51712
    44f0:	b9524289 	ldr	w9, [x20,#4672]
    44f4:	72a77348 	movk	w8, #0x3b9a, lsl #16
    44f8:	f945928a 	ldr	x10, [x20,#2848]
    44fc:	1ac00908 	udiv	w8, w8, w0
    4500:	d3607d08 	lsl	x8, x8, #32
    4504:	9ac90901 	udiv	x1, x8, x9
    4508:	b9123281 	str	w1, [x20,#4656]
    450c:	f9401148 	ldr	x8, [x10,#32]
    4510:	f9493280 	ldr	x0, [x20,#4704]
    4514:	f9400d08 	ldr	x8, [x8,#24]
    4518:	d63f0100 	blr	x8
    451c:	910003e0 	mov	x0, sp
    4520:	94000000 	bl	0 <getnstimeofday64>
    4524:	f9459288 	ldr	x8, [x20,#2848]
    4528:	f9493280 	ldr	x0, [x20,#4704]
    452c:	b9400be2 	ldr	w2, [sp,#8]
    4530:	b94003e1 	ldr	w1, [sp]
    4534:	f9401108 	ldr	x8, [x8,#32]
    4538:	f9400908 	ldr	x8, [x8,#16]
    453c:	d63f0100 	blr	x8
    4540:	f9400a60 	ldr	x0, [x19,#16]
    4544:	f94006c8 	ldr	x8, [x22,#8]
    4548:	128001b5 	mov	w21, #0xfffffff2            	// #-14
    454c:	aa0003e9 	mov	x9, x0
    4550:	b1003129 	adds	x9, x9, #0xc
    4554:	9a8883e8 	csel	x8, xzr, x8, hi
    4558:	da9f3129 	csinv	x9, x9, xzr, cc
    455c:	fa08013f 	sbcs	xzr, x9, x8
    4560:	9a9f87e9 	cset	x9, ls
    4564:	b40000c9 	cbz	x9, 457c <stmmac_ioctl+0x464>
    4568:	910043e1 	add	x1, sp, #0x10
    456c:	52800182 	mov	w2, #0xc                   	// #12
    4570:	94000000 	bl	0 <__arch_copy_to_user>
    4574:	f100001f 	cmp	x0, #0x0
    4578:	1a9503f5 	csel	w21, wzr, w21, eq
    457c:	2a1503e0 	mov	w0, w21
    4580:	a9447bfd 	ldp	x29, x30, [sp,#64]
    4584:	a9434ff4 	ldp	x20, x19, [sp,#48]
    4588:	a94257f6 	ldp	x22, x21, [sp,#32]
    458c:	910143ff 	add	sp, sp, #0x50
    4590:	d65f03c0 	ret
    4594:	aa0003e2 	mov	x2, x0
    4598:	17ffff2c 	b	4248 <stmmac_ioctl+0x130>

000000000000459c <stmmac_change_mtu>:
    459c:	a9be4ff4 	stp	x20, x19, [sp,#-32]!
    45a0:	a9017bfd 	stp	x29, x30, [sp,#16]
    45a4:	910043fd 	add	x29, sp, #0x10
    45a8:	2a0103f4 	mov	w20, w1
    45ac:	aa0003f3 	mov	x19, x0
    45b0:	94000000 	bl	0 <_mcount>
    45b4:	f9402668 	ldr	x8, [x19,#72]
    45b8:	370002a8 	tbnz	w8, #0, 460c <stmmac_change_mtu+0x70>
    45bc:	f947c268 	ldr	x8, [x19,#3968]
    45c0:	52846509 	mov	w9, #0x2328                	// #9000
    45c4:	b940390a 	ldr	w10, [x8,#56]
    45c8:	350000aa 	cbnz	w10, 45dc <stmmac_change_mtu+0x40>
    45cc:	b951266a 	ldr	w10, [x19,#4388]
    45d0:	7100fd5f 	cmp	w10, #0x3f
    45d4:	5281cfca 	mov	w10, #0xe7e                 	// #3710
    45d8:	1a8ac129 	csel	w9, w9, w10, gt
    45dc:	b9405d08 	ldr	w8, [x8,#92]
    45e0:	6b09011f 	cmp	w8, w9
    45e4:	1a89b102 	csel	w2, w8, w9, lt
    45e8:	7100ba9f 	cmp	w20, #0x2e
    45ec:	5400020b 	b.lt	462c <stmmac_change_mtu+0x90>
    45f0:	6b14005f 	cmp	w2, w20
    45f4:	540001cb 	b.lt	462c <stmmac_change_mtu+0x90>
    45f8:	aa1303e0 	mov	x0, x19
    45fc:	b9024a74 	str	w20, [x19,#584]
    4600:	94000000 	bl	0 <netdev_update_features>
    4604:	2a1f03e0 	mov	w0, wzr
    4608:	14000010 	b	4648 <stmmac_change_mtu+0xac>
    460c:	d2800000 	mov	x0, #0x0                   	// #0
    4610:	f2a00000 	movk	x0, #0x0, lsl #16
    4614:	f2c00000 	movk	x0, #0x0, lsl #32
    4618:	f2e00000 	movk	x0, #0x0, lsl #48
    461c:	aa1303e1 	mov	x1, x19
    4620:	94000000 	bl	0 <printk>
    4624:	128001e0 	mov	w0, #0xfffffff0            	// #-16
    4628:	14000008 	b	4648 <stmmac_change_mtu+0xac>
    462c:	d2800000 	mov	x0, #0x0                   	// #0
    4630:	f2a00000 	movk	x0, #0x0, lsl #16
    4634:	f2c00000 	movk	x0, #0x0, lsl #32
    4638:	f2e00000 	movk	x0, #0x0, lsl #48
    463c:	aa1303e1 	mov	x1, x19
    4640:	94000000 	bl	0 <printk>
    4644:	128002a0 	mov	w0, #0xffffffea            	// #-22
    4648:	a9417bfd 	ldp	x29, x30, [sp,#16]
    464c:	a8c24ff4 	ldp	x20, x19, [sp],#32
    4650:	d65f03c0 	ret

0000000000004654 <stmmac_tx_timeout>:
    4654:	f81e0ff3 	str	x19, [sp,#-32]!
    4658:	a9017bfd 	stp	x29, x30, [sp,#16]
    465c:	910043fd 	add	x29, sp, #0x10
    4660:	aa0003f3 	mov	x19, x0
    4664:	94000000 	bl	0 <_mcount>
    4668:	91240260 	add	x0, x19, #0x900
    466c:	940001f0 	bl	4e2c <stmmac_tx_err>
    4670:	a9417bfd 	ldp	x29, x30, [sp,#16]
    4674:	f84207f3 	ldr	x19, [sp],#32
    4678:	d65f03c0 	ret

000000000000467c <stmmac_poll_controller>:
    467c:	f81e0ff3 	str	x19, [sp,#-32]!
    4680:	a9017bfd 	stp	x29, x30, [sp,#16]
    4684:	910043fd 	add	x29, sp, #0x10
    4688:	aa0003f3 	mov	x19, x0
    468c:	94000000 	bl	0 <_mcount>
    4690:	b9404260 	ldr	w0, [x19,#64]
    4694:	94000000 	bl	0 <disable_irq>
    4698:	b9404260 	ldr	w0, [x19,#64]
    469c:	aa1303e1 	mov	x1, x19
    46a0:	9400003b 	bl	478c <stmmac_interrupt>
    46a4:	b9404260 	ldr	w0, [x19,#64]
    46a8:	94000000 	bl	0 <enable_irq>
    46ac:	a9417bfd 	ldp	x29, x30, [sp,#16]
    46b0:	f84207f3 	ldr	x19, [sp],#32
    46b4:	d65f03c0 	ret

00000000000046b8 <stmmac_fix_features>:
    46b8:	a9be4ff4 	stp	x20, x19, [sp,#-32]!
    46bc:	a9017bfd 	stp	x29, x30, [sp,#16]
    46c0:	910043fd 	add	x29, sp, #0x10
    46c4:	aa0103f4 	mov	x20, x1
    46c8:	aa0003f3 	mov	x19, x0
    46cc:	94000000 	bl	0 <_mcount>
    46d0:	f947c268 	ldr	x8, [x19,#3968]
    46d4:	925afa8b 	and	x11, x20, #0xffffffdfffffffff
    46d8:	9280034c 	mov	x12, #0xffffffffffffffe5    	// #-27
    46dc:	2947a50a 	ldp	w10, w9, [x8,#60]
    46e0:	b940450d 	ldr	w13, [x8,#68]
    46e4:	7100013f 	cmp	w9, #0x0
    46e8:	9a94016b 	csel	x11, x11, x20, eq
    46ec:	8a0c0169 	and	x9, x11, x12
    46f0:	7100015f 	cmp	w10, #0x0
    46f4:	9a8b0120 	csel	x0, x9, x11, eq
    46f8:	3400008d 	cbz	w13, 4708 <stmmac_fix_features+0x50>
    46fc:	b9424a6a 	ldr	w10, [x19,#584]
    4700:	7117715f 	cmp	w10, #0x5dc
    4704:	9a808120 	csel	x0, x9, x0, hi
    4708:	3942d108 	ldrb	w8, [x8,#180]
    470c:	34000108 	cbz	w8, 472c <stmmac_fix_features+0x74>
    4710:	b94fc268 	ldr	w8, [x19,#4032]
    4714:	340000c8 	cbz	w8, 472c <stmmac_fix_features+0x74>
    4718:	37800060 	tbnz	w0, #16, 4724 <stmmac_fix_features+0x6c>
    471c:	3926627f 	strb	wzr, [x19,#2456]
    4720:	14000003 	b	472c <stmmac_fix_features+0x74>
    4724:	52800028 	mov	w8, #0x1                   	// #1
    4728:	39266268 	strb	w8, [x19,#2456]
    472c:	a9417bfd 	ldp	x29, x30, [sp,#16]
    4730:	a8c24ff4 	ldp	x20, x19, [sp],#32
    4734:	d65f03c0 	ret

0000000000004738 <stmmac_set_features>:
    4738:	a9be4ff4 	stp	x20, x19, [sp,#-32]!
    473c:	a9017bfd 	stp	x29, x30, [sp,#16]
    4740:	910043fd 	add	x29, sp, #0x10
    4744:	aa0103f4 	mov	x20, x1
    4748:	aa0003f3 	mov	x19, x0
    474c:	94000000 	bl	0 <_mcount>
    4750:	b7280074 	tbnz	x20, #37, 475c <stmmac_set_features+0x24>
    4754:	2a1f03e8 	mov	w8, wzr
    4758:	14000003 	b	4764 <stmmac_set_features+0x2c>
    475c:	f947c268 	ldr	x8, [x19,#3968]
    4760:	b9404108 	ldr	w8, [x8,#64]
    4764:	f9459269 	ldr	x9, [x19,#2848]
    4768:	b9005528 	str	w8, [x9,#84]
    476c:	f9459260 	ldr	x0, [x19,#2848]
    4770:	f9400008 	ldr	x8, [x0]
    4774:	f9400508 	ldr	x8, [x8,#8]
    4778:	d63f0100 	blr	x8
    477c:	a9417bfd 	ldp	x29, x30, [sp,#16]
    4780:	2a1f03e0 	mov	w0, wzr
    4784:	a8c24ff4 	ldp	x20, x19, [sp],#32
    4788:	d65f03c0 	ret

000000000000478c <stmmac_interrupt>:
    478c:	a9bd57f6 	stp	x22, x21, [sp,#-48]!
    4790:	a9014ff4 	stp	x20, x19, [sp,#16]
    4794:	a9027bfd 	stp	x29, x30, [sp,#32]
    4798:	910083fd 	add	x29, sp, #0x20
    479c:	aa0103f3 	mov	x19, x1
    47a0:	94000000 	bl	0 <_mcount>
    47a4:	b9524e68 	ldr	w8, [x19,#4684]
    47a8:	34000088 	cbz	w8, 47b8 <stmmac_interrupt+0x2c>
    47ac:	f9458e60 	ldr	x0, [x19,#2840]
    47b0:	2a1f03e1 	mov	w1, wzr
    47b4:	94000000 	bl	0 <pm_wakeup_event>
    47b8:	b40006f3 	cbz	x19, 4894 <stmmac_interrupt+0x108>
    47bc:	f947c268 	ldr	x8, [x19,#3968]
    47c0:	b9403509 	ldr	w9, [x8,#52]
    47c4:	35000069 	cbnz	w9, 47d0 <stmmac_interrupt+0x44>
    47c8:	b940b108 	ldr	w8, [x8,#176]
    47cc:	34000228 	cbz	w8, 4810 <stmmac_interrupt+0x84>
    47d0:	f9459260 	ldr	x0, [x19,#2848]
    47d4:	91300261 	add	x1, x19, #0xc00
    47d8:	f9400008 	ldr	x8, [x0]
    47dc:	f9400d08 	ldr	x8, [x8,#24]
    47e0:	d63f0100 	blr	x8
    47e4:	35000a80 	cbnz	w0, 4934 <stmmac_interrupt+0x1a8>
    47e8:	f9459268 	ldr	x8, [x19,#2848]
    47ec:	b9405908 	ldr	w8, [x8,#88]
    47f0:	34000108 	cbz	w8, 4810 <stmmac_interrupt+0x84>
    47f4:	f9474e68 	ldr	x8, [x19,#3736]
    47f8:	b4000088 	cbz	x8, 4808 <stmmac_interrupt+0x7c>
    47fc:	aa1303e0 	mov	x0, x19
    4800:	94000000 	bl	0 <netif_carrier_on>
    4804:	14000003 	b	4810 <stmmac_interrupt+0x84>
    4808:	aa1303e0 	mov	x0, x19
    480c:	94000000 	bl	0 <netif_carrier_off>
    4810:	f9459268 	ldr	x8, [x19,#2848]
    4814:	f947c269 	ldr	x9, [x19,#3968]
    4818:	f9458660 	ldr	x0, [x19,#2824]
    481c:	91300261 	add	x1, x19, #0xc00
    4820:	f9400908 	ldr	x8, [x8,#16]
    4824:	b9406d34 	ldr	w20, [x9,#108]
    4828:	f9403508 	ldr	x8, [x8,#104]
    482c:	d63f0100 	blr	x8
    4830:	2a0003f5 	mov	w21, w0
    4834:	721e041f 	tst	w0, #0xc
    4838:	540001e0 	b.eq	4874 <stmmac_interrupt+0xe8>
    483c:	f9452a68 	ldr	x8, [x19,#2640]
    4840:	370801a8 	tbnz	w8, #1, 4874 <stmmac_interrupt+0xe8>
    4844:	91294261 	add	x1, x19, #0xa50
    4848:	2a1f03e0 	mov	w0, wzr
    484c:	94000000 	bl	0 <test_and_set_bit>
    4850:	35000120 	cbnz	w0, 4874 <stmmac_interrupt+0xe8>
    4854:	f9459268 	ldr	x8, [x19,#2848]
    4858:	f9458660 	ldr	x0, [x19,#2824]
    485c:	91290276 	add	x22, x19, #0xa40
    4860:	f9400908 	ldr	x8, [x8,#16]
    4864:	f9402108 	ldr	x8, [x8,#64]
    4868:	d63f0100 	blr	x8
    486c:	aa1603e0 	mov	x0, x22
    4870:	94000000 	bl	0 <__napi_schedule>
    4874:	37080275 	tbnz	w21, #1, 48c0 <stmmac_interrupt+0x134>
    4878:	710006bf 	cmp	w21, #0x1
    487c:	54000560 	b.eq	4928 <stmmac_interrupt+0x19c>
    4880:	52800020 	mov	w0, #0x1                   	// #1
    4884:	a9427bfd 	ldp	x29, x30, [sp,#32]
    4888:	a9414ff4 	ldp	x20, x19, [sp,#16]
    488c:	a8c357f6 	ldp	x22, x21, [sp],#48
    4890:	d65f03c0 	ret
    4894:	d2800000 	mov	x0, #0x0                   	// #0
    4898:	d2800001 	mov	x1, #0x0                   	// #0
    489c:	f2a00000 	movk	x0, #0x0, lsl #16
    48a0:	f2a00001 	movk	x1, #0x0, lsl #16
    48a4:	f2c00000 	movk	x0, #0x0, lsl #32
    48a8:	f2c00001 	movk	x1, #0x0, lsl #32
    48ac:	f2e00000 	movk	x0, #0x0, lsl #48
    48b0:	f2e00001 	movk	x1, #0x0, lsl #48
    48b4:	94000000 	bl	0 <printk>
    48b8:	2a1f03e0 	mov	w0, wzr
    48bc:	17fffff2 	b	4884 <stmmac_interrupt+0xf8>
    48c0:	f9469668 	ldr	x8, [x19,#3368]
    48c4:	52800020 	mov	w0, #0x1                   	// #1
    48c8:	f100051f 	cmp	x8, #0x1
    48cc:	54fffdc0 	b.eq	4884 <stmmac_interrupt+0xf8>
    48d0:	d2800015 	mov	x21, #0x0                   	// #0
    48d4:	f2a00015 	movk	x21, #0x0, lsl #16
    48d8:	f2c00015 	movk	x21, #0x0, lsl #32
    48dc:	f2e00015 	movk	x21, #0x0, lsl #48
    48e0:	b94002a8 	ldr	w8, [x21]
    48e4:	7104011f 	cmp	w8, #0x100
    48e8:	54fffcec 	b.gt	4884 <stmmac_interrupt+0xf8>
    48ec:	11010101 	add	w1, w8, #0x40
    48f0:	b90002a1 	str	w1, [x21]
    48f4:	f9459268 	ldr	x8, [x19,#2848]
    48f8:	f947c269 	ldr	x9, [x19,#3968]
    48fc:	f9458660 	ldr	x0, [x19,#2824]
    4900:	2a1403e3 	mov	w3, w20
    4904:	f9400908 	ldr	x8, [x8,#16]
    4908:	b9405129 	ldr	w9, [x9,#80]
    490c:	f9401108 	ldr	x8, [x8,#32]
    4910:	7100013f 	cmp	w9, #0x0
    4914:	1a9f1422 	csinc	w2, w1, wzr, ne
    4918:	d63f0100 	blr	x8
    491c:	b98002a8 	ldrsw	x8, [x21]
    4920:	f9069668 	str	x8, [x19,#3368]
    4924:	17ffffd7 	b	4880 <stmmac_interrupt+0xf4>
    4928:	91240260 	add	x0, x19, #0x900
    492c:	94000140 	bl	4e2c <stmmac_tx_err>
    4930:	17ffffd4 	b	4880 <stmmac_interrupt+0xf4>
    4934:	37000080 	tbnz	w0, #0, 4944 <stmmac_interrupt+0x1b8>
    4938:	370800c0 	tbnz	w0, #1, 4950 <stmmac_interrupt+0x1c4>
    493c:	3647f560 	tbz	w0, #8, 47e8 <stmmac_interrupt+0x5c>
    4940:	14000006 	b	4958 <stmmac_interrupt+0x1cc>
    4944:	52800028 	mov	w8, #0x1                   	// #1
    4948:	39253268 	strb	w8, [x19,#2380]
    494c:	360fff80 	tbz	w0, #1, 493c <stmmac_interrupt+0x1b0>
    4950:	3925327f 	strb	wzr, [x19,#2380]
    4954:	3647f4a0 	tbz	w0, #8, 47e8 <stmmac_interrupt+0x5c>
    4958:	f9459268 	ldr	x8, [x19,#2848]
    495c:	f9400908 	ldr	x8, [x8,#16]
    4960:	f9404908 	ldr	x8, [x8,#144]
    4964:	b4fff428 	cbz	x8, 47e8 <stmmac_interrupt+0x5c>
    4968:	f9458660 	ldr	x0, [x19,#2824]
    496c:	b9526a61 	ldr	w1, [x19,#4712]
    4970:	2a1f03e2 	mov	w2, wzr
    4974:	d63f0100 	blr	x8
    4978:	17ffff9c 	b	47e8 <stmmac_interrupt+0x5c>

000000000000497c <free_dma_desc_resources>:
    497c:	a9bc5ff8 	stp	x24, x23, [sp,#-64]!
    4980:	a90157f6 	stp	x22, x21, [sp,#16]
    4984:	a9024ff4 	stp	x20, x19, [sp,#32]
    4988:	a9037bfd 	stp	x29, x30, [sp,#48]
    498c:	9100c3fd 	add	x29, sp, #0x30
    4990:	aa0003f3 	mov	x19, x0
    4994:	94000000 	bl	0 <_mcount>
    4998:	d2800017 	mov	x23, #0x0                   	// #0
    499c:	f2a00017 	movk	x23, #0x0, lsl #16
    49a0:	f2c00017 	movk	x23, #0x0, lsl #32
    49a4:	aa1f03f4 	mov	x20, xzr
    49a8:	f2e00017 	movk	x23, #0x0, lsl #48
    49ac:	14000008 	b	49cc <free_dma_desc_resources+0x50>
    49b0:	52800021 	mov	w1, #0x1                   	// #1
    49b4:	94000000 	bl	0 <__dev_kfree_skb_any>
    49b8:	f9406a68 	ldr	x8, [x19,#208]
    49bc:	f834691f 	str	xzr, [x8,x20]
    49c0:	91002294 	add	x20, x20, #0x8
    49c4:	f140069f 	cmp	x20, #0x1, lsl #12
    49c8:	540002a0 	b.eq	4a1c <free_dma_desc_resources+0xa0>
    49cc:	f9406a68 	ldr	x8, [x19,#208]
    49d0:	f8746900 	ldr	x0, [x8,x20]
    49d4:	b4ffff40 	cbz	x0, 49bc <free_dma_desc_resources+0x40>
    49d8:	f9407e69 	ldr	x9, [x19,#248]
    49dc:	f9410e68 	ldr	x8, [x19,#536]
    49e0:	b940e262 	ldr	w2, [x19,#224]
    49e4:	f8746921 	ldr	x1, [x9,x20]
    49e8:	b4000068 	cbz	x8, 49f4 <free_dma_desc_resources+0x78>
    49ec:	f9412509 	ldr	x9, [x8,#584]
    49f0:	b5000049 	cbnz	x9, 49f8 <free_dma_desc_resources+0x7c>
    49f4:	aa1703e9 	mov	x9, x23
    49f8:	f9401529 	ldr	x9, [x9,#40]
    49fc:	b4fffda9 	cbz	x9, 49b0 <free_dma_desc_resources+0x34>
    4a00:	52800043 	mov	w3, #0x2                   	// #2
    4a04:	aa0803e0 	mov	x0, x8
    4a08:	aa1f03e4 	mov	x4, xzr
    4a0c:	d63f0120 	blr	x9
    4a10:	f9406a68 	ldr	x8, [x19,#208]
    4a14:	f8746900 	ldr	x0, [x8,x20]
    4a18:	17ffffe6 	b	49b0 <free_dma_desc_resources+0x34>
    4a1c:	aa1303e0 	mov	x0, x19
    4a20:	94000142 	bl	4f28 <dma_free_tx_skbufs>
    4a24:	b948b668 	ldr	w8, [x19,#2228]
    4a28:	f9410e74 	ldr	x20, [x19,#536]
    4a2c:	34000548 	cbz	w8, 4ad4 <free_dma_desc_resources+0x158>
    4a30:	f9400276 	ldr	x22, [x19]
    4a34:	f9401e75 	ldr	x21, [x19,#56]
    4a38:	b4000074 	cbz	x20, 4a44 <free_dma_desc_resources+0xc8>
    4a3c:	f9412698 	ldr	x24, [x20,#584]
    4a40:	b5000058 	cbnz	x24, 4a48 <free_dma_desc_resources+0xcc>
    4a44:	aa1703f8 	mov	x24, x23
    4a48:	d53b4228 	mrs	x8, daif
    4a4c:	37380b88 	tbnz	w8, #7, 4bbc <free_dma_desc_resources+0x240>
    4a50:	52800041 	mov	w1, #0x2                   	// #2
    4a54:	aa1403e0 	mov	x0, x20
    4a58:	aa1603e2 	mov	x2, x22
    4a5c:	94000000 	bl	0 <dma_release_from_coherent>
    4a60:	35000140 	cbnz	w0, 4a88 <free_dma_desc_resources+0x10c>
    4a64:	b4000136 	cbz	x22, 4a88 <free_dma_desc_resources+0x10c>
    4a68:	f9400708 	ldr	x8, [x24,#8]
    4a6c:	b40000e8 	cbz	x8, 4a88 <free_dma_desc_resources+0x10c>
    4a70:	52880001 	mov	w1, #0x4000                	// #16384
    4a74:	aa1403e0 	mov	x0, x20
    4a78:	aa1603e2 	mov	x2, x22
    4a7c:	aa1503e3 	mov	x3, x21
    4a80:	aa1f03e4 	mov	x4, xzr
    4a84:	d63f0100 	blr	x8
    4a88:	f9410e74 	ldr	x20, [x19,#536]
    4a8c:	f9406676 	ldr	x22, [x19,#200]
    4a90:	f9408275 	ldr	x21, [x19,#256]
    4a94:	b4000074 	cbz	x20, 4aa0 <free_dma_desc_resources+0x124>
    4a98:	f9412698 	ldr	x24, [x20,#584]
    4a9c:	b5000058 	cbnz	x24, 4aa4 <free_dma_desc_resources+0x128>
    4aa0:	aa1703f8 	mov	x24, x23
    4aa4:	d53b4228 	mrs	x8, daif
    4aa8:	373808e8 	tbnz	w8, #7, 4bc4 <free_dma_desc_resources+0x248>
    4aac:	52800041 	mov	w1, #0x2                   	// #2
    4ab0:	aa1403e0 	mov	x0, x20
    4ab4:	aa1603e2 	mov	x2, x22
    4ab8:	94000000 	bl	0 <dma_release_from_coherent>
    4abc:	35000660 	cbnz	w0, 4b88 <free_dma_desc_resources+0x20c>
    4ac0:	b4000656 	cbz	x22, 4b88 <free_dma_desc_resources+0x20c>
    4ac4:	f9400708 	ldr	x8, [x24,#8]
    4ac8:	b4000608 	cbz	x8, 4b88 <free_dma_desc_resources+0x20c>
    4acc:	52880001 	mov	w1, #0x4000                	// #16384
    4ad0:	14000029 	b	4b74 <free_dma_desc_resources+0x1f8>
    4ad4:	f9400676 	ldr	x22, [x19,#8]
    4ad8:	f9401e75 	ldr	x21, [x19,#56]
    4adc:	b4000074 	cbz	x20, 4ae8 <free_dma_desc_resources+0x16c>
    4ae0:	f9412698 	ldr	x24, [x20,#584]
    4ae4:	b5000058 	cbnz	x24, 4aec <free_dma_desc_resources+0x170>
    4ae8:	aa1703f8 	mov	x24, x23
    4aec:	d53b4228 	mrs	x8, daif
    4af0:	373806e8 	tbnz	w8, #7, 4bcc <free_dma_desc_resources+0x250>
    4af4:	52800021 	mov	w1, #0x1                   	// #1
    4af8:	aa1403e0 	mov	x0, x20
    4afc:	aa1603e2 	mov	x2, x22
    4b00:	94000000 	bl	0 <dma_release_from_coherent>
    4b04:	35000140 	cbnz	w0, 4b2c <free_dma_desc_resources+0x1b0>
    4b08:	b4000136 	cbz	x22, 4b2c <free_dma_desc_resources+0x1b0>
    4b0c:	f9400708 	ldr	x8, [x24,#8]
    4b10:	b40000e8 	cbz	x8, 4b2c <free_dma_desc_resources+0x1b0>
    4b14:	52840001 	mov	w1, #0x2000                	// #8192
    4b18:	aa1403e0 	mov	x0, x20
    4b1c:	aa1603e2 	mov	x2, x22
    4b20:	aa1503e3 	mov	x3, x21
    4b24:	aa1f03e4 	mov	x4, xzr
    4b28:	d63f0100 	blr	x8
    4b2c:	f9410e74 	ldr	x20, [x19,#536]
    4b30:	f9406276 	ldr	x22, [x19,#192]
    4b34:	f9408275 	ldr	x21, [x19,#256]
    4b38:	b4000074 	cbz	x20, 4b44 <free_dma_desc_resources+0x1c8>
    4b3c:	f9412698 	ldr	x24, [x20,#584]
    4b40:	b5000058 	cbnz	x24, 4b48 <free_dma_desc_resources+0x1cc>
    4b44:	aa1703f8 	mov	x24, x23
    4b48:	d53b4228 	mrs	x8, daif
    4b4c:	37380448 	tbnz	w8, #7, 4bd4 <free_dma_desc_resources+0x258>
    4b50:	52800021 	mov	w1, #0x1                   	// #1
    4b54:	aa1403e0 	mov	x0, x20
    4b58:	aa1603e2 	mov	x2, x22
    4b5c:	94000000 	bl	0 <dma_release_from_coherent>
    4b60:	35000140 	cbnz	w0, 4b88 <free_dma_desc_resources+0x20c>
    4b64:	b4000136 	cbz	x22, 4b88 <free_dma_desc_resources+0x20c>
    4b68:	f9400708 	ldr	x8, [x24,#8]
    4b6c:	b40000e8 	cbz	x8, 4b88 <free_dma_desc_resources+0x20c>
    4b70:	52840001 	mov	w1, #0x2000                	// #8192
    4b74:	aa1403e0 	mov	x0, x20
    4b78:	aa1603e2 	mov	x2, x22
    4b7c:	aa1503e3 	mov	x3, x21
    4b80:	aa1f03e4 	mov	x4, xzr
    4b84:	d63f0100 	blr	x8
    4b88:	f9407e60 	ldr	x0, [x19,#248]
    4b8c:	94000000 	bl	0 <kfree>
    4b90:	f9406a60 	ldr	x0, [x19,#208]
    4b94:	94000000 	bl	0 <kfree>
    4b98:	f9401a60 	ldr	x0, [x19,#48]
    4b9c:	94000000 	bl	0 <kfree>
    4ba0:	f9400a60 	ldr	x0, [x19,#16]
    4ba4:	94000000 	bl	0 <kfree>
    4ba8:	a9437bfd 	ldp	x29, x30, [sp,#48]
    4bac:	a9424ff4 	ldp	x20, x19, [sp,#32]
    4bb0:	a94157f6 	ldp	x22, x21, [sp,#16]
    4bb4:	a8c45ff8 	ldp	x24, x23, [sp],#64
    4bb8:	d65f03c0 	ret
    4bbc:	d4210000 	brk	#0x800
    4bc0:	17ffffa4 	b	4a50 <free_dma_desc_resources+0xd4>
    4bc4:	d4210000 	brk	#0x800
    4bc8:	17ffffb9 	b	4aac <free_dma_desc_resources+0x130>
    4bcc:	d4210000 	brk	#0x800
    4bd0:	17ffffc9 	b	4af4 <free_dma_desc_resources+0x178>
    4bd4:	d4210000 	brk	#0x800
    4bd8:	17ffffde 	b	4b50 <free_dma_desc_resources+0x1d4>

0000000000004bdc <stmmac_adjust_link>:
    4bdc:	a9bb67fa 	stp	x26, x25, [sp,#-80]!
    4be0:	a9015ff8 	stp	x24, x23, [sp,#16]
    4be4:	a90257f6 	stp	x22, x21, [sp,#32]
    4be8:	a9034ff4 	stp	x20, x19, [sp,#48]
    4bec:	a9047bfd 	stp	x29, x30, [sp,#64]
    4bf0:	910103fd 	add	x29, sp, #0x40
    4bf4:	aa0003f3 	mov	x19, x0
    4bf8:	94000000 	bl	0 <_mcount>
    4bfc:	f945a274 	ldr	x20, [x19,#2880]
    4c00:	b4001034 	cbz	x20, 4e04 <stmmac_adjust_link+0x228>
    4c04:	b94b5677 	ldr	w23, [x19,#2900]
    4c08:	b94b5a78 	ldr	w24, [x19,#2904]
    4c0c:	912ca275 	add	x21, x19, #0xb28
    4c10:	aa1503e0 	mov	x0, x21
    4c14:	94000000 	bl	0 <_raw_spin_lock_irqsave>
    4c18:	b9436688 	ldr	w8, [x20,#868]
    4c1c:	aa0003f6 	mov	x22, x0
    4c20:	34000188 	cbz	w8, 4c50 <stmmac_adjust_link+0x74>
    4c24:	f9458668 	ldr	x8, [x19,#2824]
    4c28:	b9400119 	ldr	w25, [x8]
    4c2c:	d5033d9f 	dsb	ld
    4c30:	b9435a88 	ldr	w8, [x20,#856]
    4c34:	b94b5269 	ldr	w9, [x19,#2896]
    4c38:	6b09011f 	cmp	w8, w9
    4c3c:	54000181 	b.ne	4c6c <stmmac_adjust_link+0x90>
    4c40:	2a1f03fa 	mov	w26, wzr
    4c44:	b9435e88 	ldr	w8, [x20,#860]
    4c48:	35000268 	cbnz	w8, 4c94 <stmmac_adjust_link+0xb8>
    4c4c:	14000019 	b	4cb0 <stmmac_adjust_link+0xd4>
    4c50:	b94b4a68 	ldr	w8, [x19,#2888]
    4c54:	34000c08 	cbz	w8, 4dd4 <stmmac_adjust_link+0x1f8>
    4c58:	6f00e400 	movi	v0.2d, #0x0
    4c5c:	12800008 	mov	w8, #0xffffffff            	// #-1
    4c60:	fd05a660 	str	d0, [x19,#2888]
    4c64:	b90b5268 	str	w8, [x19,#2896]
    4c68:	14000056 	b	4dc0 <stmmac_adjust_link+0x1e4>
    4c6c:	f9459269 	ldr	x9, [x19,#2848]
    4c70:	7100011f 	cmp	w8, #0x0
    4c74:	5280003a 	mov	w26, #0x1                   	// #1
    4c78:	b9403529 	ldr	w9, [x9,#52]
    4c7c:	b90b5268 	str	w8, [x19,#2896]
    4c80:	2a190128 	orr	w8, w9, w25
    4c84:	0a290329 	bic	w9, w25, w9
    4c88:	1a880139 	csel	w25, w9, w8, eq
    4c8c:	b9435e88 	ldr	w8, [x20,#860]
    4c90:	34000108 	cbz	w8, 4cb0 <stmmac_adjust_link+0xd4>
    4c94:	f9459260 	ldr	x0, [x19,#2848]
    4c98:	b9435a81 	ldr	w1, [x20,#856]
    4c9c:	2a1703e2 	mov	w2, w23
    4ca0:	2a1803e3 	mov	w3, w24
    4ca4:	f9400008 	ldr	x8, [x0]
    4ca8:	f9401508 	ldr	x8, [x8,#40]
    4cac:	d63f0100 	blr	x8
    4cb0:	b9435682 	ldr	w2, [x20,#852]
    4cb4:	b94b4e68 	ldr	w8, [x19,#2892]
    4cb8:	6b08005f 	cmp	w2, w8
    4cbc:	54000700 	b.eq	4d9c <stmmac_adjust_link+0x1c0>
    4cc0:	7100285f 	cmp	w2, #0xa
    4cc4:	54000200 	b.eq	4d04 <stmmac_adjust_link+0x128>
    4cc8:	7101905f 	cmp	w2, #0x64
    4ccc:	540001c0 	b.eq	4d04 <stmmac_adjust_link+0x128>
    4cd0:	710fa05f 	cmp	w2, #0x3e8
    4cd4:	54000241 	b.ne	4d1c <stmmac_adjust_link+0x140>
    4cd8:	f947c268 	ldr	x8, [x19,#3968]
    4cdc:	b9403509 	ldr	w9, [x8,#52]
    4ce0:	35000069 	cbnz	w9, 4cec <stmmac_adjust_link+0x110>
    4ce4:	b940b109 	ldr	w9, [x8,#176]
    4ce8:	34000489 	cbz	w9, 4d78 <stmmac_adjust_link+0x19c>
    4cec:	f9459269 	ldr	x9, [x19,#2848]
    4cf0:	b9403129 	ldr	w9, [x9,#48]
    4cf4:	0a290339 	bic	w25, w25, w9
    4cf8:	f9403909 	ldr	x9, [x8,#112]
    4cfc:	b5000429 	cbnz	x9, 4d80 <stmmac_adjust_link+0x1a4>
    4d00:	14000024 	b	4d90 <stmmac_adjust_link+0x1b4>
    4d04:	f947c268 	ldr	x8, [x19,#3968]
    4d08:	b9403509 	ldr	w9, [x8,#52]
    4d0c:	340001c9 	cbz	w9, 4d44 <stmmac_adjust_link+0x168>
    4d10:	f9459269 	ldr	x9, [x19,#2848]
    4d14:	b940312a 	ldr	w10, [x9,#48]
    4d18:	1400000f 	b	4d54 <stmmac_adjust_link+0x178>
    4d1c:	52822508 	mov	w8, #0x1128                	// #4392
    4d20:	38686a68 	ldrb	w8, [x19,x8]
    4d24:	36100368 	tbz	w8, #2, 4d90 <stmmac_adjust_link+0x1b4>
    4d28:	d2800000 	mov	x0, #0x0                   	// #0
    4d2c:	f2a00000 	movk	x0, #0x0, lsl #16
    4d30:	f2c00000 	movk	x0, #0x0, lsl #32
    4d34:	f2e00000 	movk	x0, #0x0, lsl #48
    4d38:	aa1303e1 	mov	x1, x19
    4d3c:	94000000 	bl	0 <printk>
    4d40:	14000014 	b	4d90 <stmmac_adjust_link+0x1b4>
    4d44:	f9459269 	ldr	x9, [x19,#2848]
    4d48:	b940b10b 	ldr	w11, [x8,#176]
    4d4c:	b940312a 	ldr	w10, [x9,#48]
    4d50:	3400066b 	cbz	w11, 4e1c <stmmac_adjust_link+0x240>
    4d54:	b9403929 	ldr	w9, [x9,#56]
    4d58:	7101905f 	cmp	w2, #0x64
    4d5c:	2a19014a 	orr	w10, w10, w25
    4d60:	540000a1 	b.ne	4d74 <stmmac_adjust_link+0x198>
    4d64:	2a0a0139 	orr	w25, w9, w10
    4d68:	f9403909 	ldr	x9, [x8,#112]
    4d6c:	b50000a9 	cbnz	x9, 4d80 <stmmac_adjust_link+0x1a4>
    4d70:	14000008 	b	4d90 <stmmac_adjust_link+0x1b4>
    4d74:	0a290159 	bic	w25, w10, w9
    4d78:	f9403909 	ldr	x9, [x8,#112]
    4d7c:	b40000a9 	cbz	x9, 4d90 <stmmac_adjust_link+0x1b4>
    4d80:	f945a26a 	ldr	x10, [x19,#2880]
    4d84:	f9405100 	ldr	x0, [x8,#160]
    4d88:	b9435541 	ldr	w1, [x10,#852]
    4d8c:	d63f0120 	blr	x9
    4d90:	b9435688 	ldr	w8, [x20,#852]
    4d94:	5280003a 	mov	w26, #0x1                   	// #1
    4d98:	b90b4e68 	str	w8, [x19,#2892]
    4d9c:	d5033e9f 	dsb	st
    4da0:	f9458668 	ldr	x8, [x19,#2824]
    4da4:	b9000119 	str	w25, [x8]
    4da8:	b94b4a68 	ldr	w8, [x19,#2888]
    4dac:	34000068 	cbz	w8, 4db8 <stmmac_adjust_link+0x1dc>
    4db0:	3500009a 	cbnz	w26, 4dc0 <stmmac_adjust_link+0x1e4>
    4db4:	14000008 	b	4dd4 <stmmac_adjust_link+0x1f8>
    4db8:	52800028 	mov	w8, #0x1                   	// #1
    4dbc:	b90b4a68 	str	w8, [x19,#2888]
    4dc0:	52822508 	mov	w8, #0x1128                	// #4392
    4dc4:	38686a68 	ldrb	w8, [x19,x8]
    4dc8:	36100068 	tbz	w8, #2, 4dd4 <stmmac_adjust_link+0x1f8>
    4dcc:	aa1403e0 	mov	x0, x20
    4dd0:	94000000 	bl	0 <phy_print_status>
    4dd4:	aa1503e0 	mov	x0, x21
    4dd8:	aa1603e1 	mov	x1, x22
    4ddc:	94000000 	bl	0 <_raw_spin_unlock_irqrestore>
    4de0:	394d0a88 	ldrb	w8, [x20,#834]
    4de4:	34000088 	cbz	w8, 4df4 <stmmac_adjust_link+0x218>
    4de8:	12800028 	mov	w8, #0xfffffffe            	// #-2
    4dec:	b9038688 	str	w8, [x20,#900]
    4df0:	14000005 	b	4e04 <stmmac_adjust_link+0x228>
    4df4:	91240260 	add	x0, x19, #0x900
    4df8:	97ffec91 	bl	3c <stmmac_eee_init>
    4dfc:	12000008 	and	w8, w0, #0x1
    4e00:	b911a668 	str	w8, [x19,#4516]
    4e04:	a9447bfd 	ldp	x29, x30, [sp,#64]
    4e08:	a9434ff4 	ldp	x20, x19, [sp,#48]
    4e0c:	a94257f6 	ldp	x22, x21, [sp,#32]
    4e10:	a9415ff8 	ldp	x24, x23, [sp,#16]
    4e14:	a8c567fa 	ldp	x26, x25, [sp],#80
    4e18:	d65f03c0 	ret
    4e1c:	0a2a0339 	bic	w25, w25, w10
    4e20:	f9403909 	ldr	x9, [x8,#112]
    4e24:	b5fffae9 	cbnz	x9, 4d80 <stmmac_adjust_link+0x1a4>
    4e28:	17ffffda 	b	4d90 <stmmac_adjust_link+0x1b4>

0000000000004e2c <stmmac_tx_err>:
    4e2c:	f81d0ff5 	str	x21, [sp,#-48]!
    4e30:	a9014ff4 	stp	x20, x19, [sp,#16]
    4e34:	a9027bfd 	stp	x29, x30, [sp,#32]
    4e38:	910083fd 	add	x29, sp, #0x20
    4e3c:	aa0003f3 	mov	x19, x0
    4e40:	94000000 	bl	0 <_mcount>
    4e44:	f9410a68 	ldr	x8, [x19,#528]
    4e48:	2a1f03e0 	mov	w0, wzr
    4e4c:	f941e108 	ldr	x8, [x8,#960]
    4e50:	91024101 	add	x1, x8, #0x90
    4e54:	94000000 	bl	0 <set_bit>
    4e58:	f9411268 	ldr	x8, [x19,#544]
    4e5c:	f9410660 	ldr	x0, [x19,#520]
    4e60:	f9400908 	ldr	x8, [x8,#16]
    4e64:	f9402908 	ldr	x8, [x8,#80]
    4e68:	d63f0100 	blr	x8
    4e6c:	aa1303e0 	mov	x0, x19
    4e70:	9400002e 	bl	4f28 <dma_free_tx_skbufs>
    4e74:	aa1f03f4 	mov	x20, xzr
    4e78:	9287fff5 	mov	x21, #0xffffffffffffc000    	// #-16384
    4e7c:	1400000a 	b	4ea4 <stmmac_tx_err+0x78>
    4e80:	f9400669 	ldr	x9, [x19,#8]
    4e84:	8b141120 	add	x0, x9, x20, lsl #4
    4e88:	b948b261 	ldr	w1, [x19,#2224]
    4e8c:	b10082bf 	cmn	x21, #0x20
    4e90:	1a9f17e2 	cset	w2, eq
    4e94:	d63f0100 	blr	x8
    4e98:	b10082b5 	adds	x21, x21, #0x20
    4e9c:	91000694 	add	x20, x20, #0x1
    4ea0:	54000140 	b.eq	4ec8 <stmmac_tx_err+0x9c>
    4ea4:	f9411268 	ldr	x8, [x19,#544]
    4ea8:	b948b669 	ldr	w9, [x19,#2228]
    4eac:	f9400508 	ldr	x8, [x8,#8]
    4eb0:	f9400508 	ldr	x8, [x8,#8]
    4eb4:	34fffe69 	cbz	w9, 4e80 <stmmac_tx_err+0x54>
    4eb8:	f9400269 	ldr	x9, [x19]
    4ebc:	8b150129 	add	x9, x9, x21
    4ec0:	91401120 	add	x0, x9, #0x4, lsl #12
    4ec4:	17fffff1 	b	4e88 <stmmac_tx_err+0x5c>
    4ec8:	f9410a68 	ldr	x8, [x19,#528]
    4ecc:	f9000e7f 	str	xzr, [x19,#24]
    4ed0:	52800020 	mov	w0, #0x1                   	// #1
    4ed4:	f941e114 	ldr	x20, [x8,#960]
    4ed8:	91024281 	add	x1, x20, #0x90
    4edc:	94000000 	bl	0 <clear_bit>
    4ee0:	91030280 	add	x0, x20, #0xc0
    4ee4:	94000000 	bl	0 <dql_reset>
    4ee8:	f9411268 	ldr	x8, [x19,#544]
    4eec:	f9410660 	ldr	x0, [x19,#520]
    4ef0:	f9400908 	ldr	x8, [x8,#16]
    4ef4:	f9402508 	ldr	x8, [x8,#72]
    4ef8:	d63f0100 	blr	x8
    4efc:	f9410a68 	ldr	x8, [x19,#528]
    4f00:	f940ad09 	ldr	x9, [x8,#344]
    4f04:	91000529 	add	x9, x9, #0x1
    4f08:	f900ad09 	str	x9, [x8,#344]
    4f0c:	f9410a68 	ldr	x8, [x19,#528]
    4f10:	f941e100 	ldr	x0, [x8,#960]
    4f14:	94000000 	bl	0 <netif_tx_wake_queue>
    4f18:	a9427bfd 	ldp	x29, x30, [sp,#32]
    4f1c:	a9414ff4 	ldp	x20, x19, [sp,#16]
    4f20:	f84307f5 	ldr	x21, [sp],#48
    4f24:	d65f03c0 	ret

0000000000004f28 <dma_free_tx_skbufs>:
    4f28:	a9bd57f6 	stp	x22, x21, [sp,#-48]!
    4f2c:	a9014ff4 	stp	x20, x19, [sp,#16]
    4f30:	a9027bfd 	stp	x29, x30, [sp,#32]
    4f34:	910083fd 	add	x29, sp, #0x20
    4f38:	aa0003f3 	mov	x19, x0
    4f3c:	94000000 	bl	0 <_mcount>
    4f40:	d2800016 	mov	x22, #0x0                   	// #0
    4f44:	f2a00016 	movk	x22, #0x0, lsl #16
    4f48:	f2c00016 	movk	x22, #0x0, lsl #32
    4f4c:	aa1f03f4 	mov	x20, xzr
    4f50:	aa1f03f5 	mov	x21, xzr
    4f54:	f2e00016 	movk	x22, #0x0, lsl #48
    4f58:	14000005 	b	4f6c <dma_free_tx_skbufs+0x44>
    4f5c:	91002294 	add	x20, x20, #0x8
    4f60:	f140069f 	cmp	x20, #0x1, lsl #12
    4f64:	910062b5 	add	x21, x21, #0x18
    4f68:	540003c0 	b.eq	4fe0 <dma_free_tx_skbufs+0xb8>
    4f6c:	f9401a68 	ldr	x8, [x19,#48]
    4f70:	f8756901 	ldr	x1, [x8,x21]
    4f74:	b40001c1 	cbz	x1, 4fac <dma_free_tx_skbufs+0x84>
    4f78:	8b150108 	add	x8, x8, x21
    4f7c:	f9410e60 	ldr	x0, [x19,#536]
    4f80:	b9400d02 	ldr	w2, [x8,#12]
    4f84:	39402109 	ldrb	w9, [x8,#8]
    4f88:	b4000060 	cbz	x0, 4f94 <dma_free_tx_skbufs+0x6c>
    4f8c:	f9412408 	ldr	x8, [x0,#584]
    4f90:	b5000048 	cbnz	x8, 4f98 <dma_free_tx_skbufs+0x70>
    4f94:	aa1603e8 	mov	x8, x22
    4f98:	f9401508 	ldr	x8, [x8,#40]
    4f9c:	b4000088 	cbz	x8, 4fac <dma_free_tx_skbufs+0x84>
    4fa0:	52800023 	mov	w3, #0x1                   	// #1
    4fa4:	aa1f03e4 	mov	x4, xzr
    4fa8:	d63f0100 	blr	x8
    4fac:	f9400a68 	ldr	x8, [x19,#16]
    4fb0:	f8746900 	ldr	x0, [x8,x20]
    4fb4:	b4fffd40 	cbz	x0, 4f5c <dma_free_tx_skbufs+0x34>
    4fb8:	52800021 	mov	w1, #0x1                   	// #1
    4fbc:	94000000 	bl	0 <__dev_kfree_skb_any>
    4fc0:	f9400a68 	ldr	x8, [x19,#16]
    4fc4:	f834691f 	str	xzr, [x8,x20]
    4fc8:	f9401a68 	ldr	x8, [x19,#48]
    4fcc:	f835691f 	str	xzr, [x8,x21]
    4fd0:	f9401a68 	ldr	x8, [x19,#48]
    4fd4:	8b150108 	add	x8, x8, x21
    4fd8:	3900211f 	strb	wzr, [x8,#8]
    4fdc:	17ffffe0 	b	4f5c <dma_free_tx_skbufs+0x34>
    4fe0:	a9427bfd 	ldp	x29, x30, [sp,#32]
    4fe4:	a9414ff4 	ldp	x20, x19, [sp,#16]
    4fe8:	a8c357f6 	ldp	x22, x21, [sp],#48
    4fec:	d65f03c0 	ret

0000000000004ff0 <stmmac_tx_clean>:
    4ff0:	d101c3ff 	sub	sp, sp, #0x70
    4ff4:	a9016ffc 	stp	x28, x27, [sp,#16]
    4ff8:	a90267fa 	stp	x26, x25, [sp,#32]
    4ffc:	a9035ff8 	stp	x24, x23, [sp,#48]
    5000:	a90457f6 	stp	x22, x21, [sp,#64]
    5004:	a9054ff4 	stp	x20, x19, [sp,#80]
    5008:	a9067bfd 	stp	x29, x30, [sp,#96]
    500c:	910183fd 	add	x29, sp, #0x60
    5010:	aa0003f4 	mov	x20, x0
    5014:	94000000 	bl	0 <_mcount>
    5018:	b9401e9a 	ldr	w26, [x20,#28]
    501c:	9101229c 	add	x28, x20, #0x48
    5020:	aa1c03e0 	mov	x0, x28
    5024:	94000000 	bl	0 <_raw_spin_lock>
    5028:	f9423288 	ldr	x8, [x20,#1120]
    502c:	b9401a89 	ldr	w9, [x20,#24]
    5030:	91000508 	add	x8, x8, #0x1
    5034:	6b09035f 	cmp	w26, w9
    5038:	f9023288 	str	x8, [x20,#1120]
    503c:	54000081 	b.ne	504c <stmmac_tx_clean+0x5c>
    5040:	b9001e9a 	str	w26, [x20,#28]
    5044:	91084293 	add	x19, x20, #0x210
    5048:	1400009f 	b	52c4 <stmmac_tx_clean+0x2d4>
    504c:	f90003fc 	str	x28, [sp]
    5050:	d2800017 	mov	x23, #0x0                   	// #0
    5054:	d280001c 	mov	x28, #0x0                   	// #0
    5058:	f2a00017 	movk	x23, #0x0, lsl #16
    505c:	f2a0001c 	movk	x28, #0x0, lsl #16
    5060:	f2c00017 	movk	x23, #0x0, lsl #32
    5064:	f2c0001c 	movk	x28, #0x0, lsl #32
    5068:	2a1f03f5 	mov	w21, wzr
    506c:	910c0296 	add	x22, x20, #0x300
    5070:	5280031b 	mov	w27, #0x18                  	// #24
    5074:	f2e00017 	movk	x23, #0x0, lsl #48
    5078:	f2e0001c 	movk	x28, #0x0, lsl #48
    507c:	f9400a88 	ldr	x8, [x20,#16]
    5080:	b948b689 	ldr	w9, [x20,#2228]
    5084:	2a1a03f3 	mov	w19, w26
    5088:	f87a5919 	ldr	x25, [x8,w26,uxtw #3]
    508c:	34000089 	cbz	w9, 509c <stmmac_tx_clean+0xac>
    5090:	f9400288 	ldr	x8, [x20]
    5094:	8b131518 	add	x24, x8, x19, lsl #5
    5098:	14000003 	b	50a4 <stmmac_tx_clean+0xb4>
    509c:	f9400688 	ldr	x8, [x20,#8]
    50a0:	8b131118 	add	x24, x8, x19, lsl #4
    50a4:	f9411288 	ldr	x8, [x20,#544]
    50a8:	f9410a89 	ldr	x9, [x20,#528]
    50ac:	f9410683 	ldr	x3, [x20,#520]
    50b0:	aa1603e1 	mov	x1, x22
    50b4:	f9400508 	ldr	x8, [x8,#8]
    50b8:	9104c120 	add	x0, x9, #0x130
    50bc:	aa1803e2 	mov	x2, x24
    50c0:	f9402508 	ldr	x8, [x8,#72]
    50c4:	d63f0100 	blr	x8
    50c8:	37100d60 	tbnz	w0, #2, 5274 <stmmac_tx_clean+0x284>
    50cc:	d50331bf 	dmb	oshld
    50d0:	37000220 	tbnz	w0, #0, 5114 <stmmac_tx_clean+0x124>
    50d4:	f9410a88 	ldr	x8, [x20,#528]
    50d8:	370809a0 	tbnz	w0, #1, 520c <stmmac_tx_clean+0x21c>
    50dc:	f9409d09 	ldr	x9, [x8,#312]
    50e0:	91000529 	add	x9, x9, #0x1
    50e4:	f9009d09 	str	x9, [x8,#312]
    50e8:	f9421a88 	ldr	x8, [x20,#1072]
    50ec:	91000508 	add	x8, x8, #0x1
    50f0:	f9021a88 	str	x8, [x20,#1072]
    50f4:	b4000119 	cbz	x25, 5114 <stmmac_tx_clean+0x124>
    50f8:	b9404688 	ldr	w8, [x20,#68]
    50fc:	340000c8 	cbz	w8, 5114 <stmmac_tx_clean+0x124>
    5100:	f940c328 	ldr	x8, [x25,#384]
    5104:	b9417329 	ldr	w9, [x25,#368]
    5108:	8b090108 	add	x8, x8, x9
    510c:	39400508 	ldrb	w8, [x8,#1]
    5110:	37100888 	tbnz	w8, #2, 5220 <stmmac_tx_clean+0x230>
    5114:	f9401a88 	ldr	x8, [x20,#48]
    5118:	9b1b7e69 	mul	x9, x19, x27
    511c:	f8696901 	ldr	x1, [x8,x9]
    5120:	b4000301 	cbz	x1, 5180 <stmmac_tx_clean+0x190>
    5124:	9b1b2268 	madd	x8, x19, x27, x8
    5128:	f9410e80 	ldr	x0, [x20,#536]
    512c:	b9400d02 	ldr	w2, [x8,#12]
    5130:	39402109 	ldrb	w9, [x8,#8]
    5134:	b4000060 	cbz	x0, 5140 <stmmac_tx_clean+0x150>
    5138:	f9412408 	ldr	x8, [x0,#584]
    513c:	b5000048 	cbnz	x8, 5144 <stmmac_tx_clean+0x154>
    5140:	aa1c03e8 	mov	x8, x28
    5144:	f9401508 	ldr	x8, [x8,#40]
    5148:	b4000088 	cbz	x8, 5158 <stmmac_tx_clean+0x168>
    514c:	52800023 	mov	w3, #0x1                   	// #1
    5150:	aa1f03e4 	mov	x4, xzr
    5154:	d63f0100 	blr	x8
    5158:	f9401a88 	ldr	x8, [x20,#48]
    515c:	8b130669 	add	x9, x19, x19, lsl #1
    5160:	d37df129 	lsl	x9, x9, #3
    5164:	f829691f 	str	xzr, [x8,x9]
    5168:	f9401a88 	ldr	x8, [x20,#48]
    516c:	8b090108 	add	x8, x8, x9
    5170:	b9000d1f 	str	wzr, [x8,#12]
    5174:	f9401a88 	ldr	x8, [x20,#48]
    5178:	8b090108 	add	x8, x8, x9
    517c:	3900211f 	strb	wzr, [x8,#8]
    5180:	f9411288 	ldr	x8, [x20,#544]
    5184:	f9400d08 	ldr	x8, [x8,#24]
    5188:	f9401908 	ldr	x8, [x8,#48]
    518c:	b4000088 	cbz	x8, 519c <stmmac_tx_clean+0x1ac>
    5190:	aa1403e0 	mov	x0, x20
    5194:	aa1803e1 	mov	x1, x24
    5198:	d63f0100 	blr	x8
    519c:	f9401a88 	ldr	x8, [x20,#48]
    51a0:	8b130669 	add	x9, x19, x19, lsl #1
    51a4:	d37df129 	lsl	x9, x9, #3
    51a8:	8b090108 	add	x8, x8, x9
    51ac:	3900411f 	strb	wzr, [x8,#16]
    51b0:	f9401a88 	ldr	x8, [x20,#48]
    51b4:	8b090108 	add	x8, x8, x9
    51b8:	3900451f 	strb	wzr, [x8,#17]
    51bc:	b4000119 	cbz	x25, 51dc <stmmac_tx_clean+0x1ec>
    51c0:	b940a328 	ldr	w8, [x25,#160]
    51c4:	aa1903e0 	mov	x0, x25
    51c8:	2a1f03e1 	mov	w1, wzr
    51cc:	0b150115 	add	w21, w8, w21
    51d0:	94000000 	bl	0 <__dev_kfree_skb_any>
    51d4:	f9400a88 	ldr	x8, [x20,#16]
    51d8:	f833791f 	str	xzr, [x8,x19,lsl #3]
    51dc:	f9411288 	ldr	x8, [x20,#544]
    51e0:	b948b281 	ldr	w1, [x20,#2224]
    51e4:	aa1803e0 	mov	x0, x24
    51e8:	f9400508 	ldr	x8, [x8,#8]
    51ec:	f9401908 	ldr	x8, [x8,#48]
    51f0:	d63f0100 	blr	x8
    51f4:	b9401a88 	ldr	w8, [x20,#24]
    51f8:	11000749 	add	w9, w26, #0x1
    51fc:	1200213a 	and	w26, w9, #0x1ff
    5200:	6b08035f 	cmp	w26, w8
    5204:	54fff3c1 	b.ne	507c <stmmac_tx_clean+0x8c>
    5208:	1400001b 	b	5274 <stmmac_tx_clean+0x284>
    520c:	f940ad09 	ldr	x9, [x8,#344]
    5210:	91000529 	add	x9, x9, #0x1
    5214:	f900ad09 	str	x9, [x8,#344]
    5218:	b5fff719 	cbnz	x25, 50f8 <stmmac_tx_clean+0x108>
    521c:	17ffffbe 	b	5114 <stmmac_tx_clean+0x124>
    5220:	f9411288 	ldr	x8, [x20,#544]
    5224:	aa1803e0 	mov	x0, x24
    5228:	f9400508 	ldr	x8, [x8,#8]
    522c:	f9404108 	ldr	x8, [x8,#128]
    5230:	d63f0100 	blr	x8
    5234:	35fff700 	cbnz	w0, 5114 <stmmac_tx_clean+0x124>
    5238:	f9411288 	ldr	x8, [x20,#544]
    523c:	b9494681 	ldr	w1, [x20,#2372]
    5240:	aa1803e0 	mov	x0, x24
    5244:	f9400508 	ldr	x8, [x8,#8]
    5248:	f9404508 	ldr	x8, [x8,#136]
    524c:	d63f0100 	blr	x8
    5250:	f90007e0 	str	x0, [sp,#8]
    5254:	aa0003e2 	mov	x2, x0
    5258:	f9410a80 	ldr	x0, [x20,#528]
    525c:	aa1703e1 	mov	x1, x23
    5260:	94000000 	bl	0 <netdev_info>
    5264:	910023e1 	add	x1, sp, #0x8
    5268:	aa1903e0 	mov	x0, x25
    526c:	94000000 	bl	0 <skb_tstamp_tx>
    5270:	17ffffa9 	b	5114 <stmmac_tx_clean+0x124>
    5274:	91084293 	add	x19, x20, #0x210
    5278:	b9001e9a 	str	w26, [x20,#28]
    527c:	34000855 	cbz	w21, 5384 <stmmac_tx_clean+0x394>
    5280:	f9410a88 	ldr	x8, [x20,#528]
    5284:	2a1503e1 	mov	w1, w21
    5288:	f941e116 	ldr	x22, [x8,#960]
    528c:	910302c0 	add	x0, x22, #0xc0
    5290:	94000000 	bl	0 <dql_completed>
    5294:	d5033bbf 	dmb	ish
    5298:	b940c6c8 	ldr	w8, [x22,#196]
    529c:	b940c2c9 	ldr	w9, [x22,#192]
    52a0:	f94003fc 	ldr	x28, [sp]
    52a4:	6b09011f 	cmp	w8, w9
    52a8:	540000e4 	b.mi	52c4 <stmmac_tx_clean+0x2d4>
    52ac:	910242c1 	add	x1, x22, #0x90
    52b0:	52800020 	mov	w0, #0x1                   	// #1
    52b4:	94000000 	bl	0 <test_and_clear_bit>
    52b8:	34000060 	cbz	w0, 52c4 <stmmac_tx_clean+0x2d4>
    52bc:	aa1603e0 	mov	x0, x22
    52c0:	94000000 	bl	0 <netif_schedule_queue>
    52c4:	f9400276 	ldr	x22, [x19]
    52c8:	f941e2c8 	ldr	x8, [x22,#960]
    52cc:	f9404908 	ldr	x8, [x8,#144]
    52d0:	36000128 	tbz	w8, #0, 52f4 <stmmac_tx_clean+0x304>
    52d4:	29432688 	ldp	w8, w9, [x20,#24]
    52d8:	2a2803ea 	mvn	w10, w8
    52dc:	6b080128 	subs	w8, w9, w8
    52e0:	0b0a0129 	add	w9, w9, w10
    52e4:	1107fd08 	add	w8, w8, #0x1ff
    52e8:	1a888128 	csel	w8, w9, w8, hi
    52ec:	7102051f 	cmp	w8, #0x81
    52f0:	540004e2 	b.cs	538c <stmmac_tx_clean+0x39c>
    52f4:	b948a688 	ldr	w8, [x20,#2212]
    52f8:	34000328 	cbz	w8, 535c <stmmac_tx_clean+0x36c>
    52fc:	39413288 	ldrb	w8, [x20,#76]
    5300:	350002e8 	cbnz	w8, 535c <stmmac_tx_clean+0x36c>
    5304:	29432688 	ldp	w8, w9, [x20,#24]
    5308:	6b08013f 	cmp	w9, w8
    530c:	540000a1 	b.ne	5320 <stmmac_tx_clean+0x330>
    5310:	f9411280 	ldr	x0, [x20,#544]
    5314:	f9400008 	ldr	x8, [x0]
    5318:	f9402508 	ldr	x8, [x8,#72]
    531c:	d63f0100 	blr	x8
    5320:	d2800008 	mov	x8, #0x0                   	// #0
    5324:	d2800009 	mov	x9, #0x0                   	// #0
    5328:	f2a00008 	movk	x8, #0x0, lsl #16
    532c:	f2a00009 	movk	x9, #0x0, lsl #16
    5330:	f2c00008 	movk	x8, #0x0, lsl #32
    5334:	f2c00009 	movk	x9, #0x0, lsl #32
    5338:	f2e00008 	movk	x8, #0x0, lsl #48
    533c:	f2e00009 	movk	x9, #0x0, lsl #48
    5340:	f9400113 	ldr	x19, [x8]
    5344:	b9400120 	ldr	w0, [x9]
    5348:	91216294 	add	x20, x20, #0x858
    534c:	94000000 	bl	0 <__msecs_to_jiffies>
    5350:	8b130001 	add	x1, x0, x19
    5354:	aa1403e0 	mov	x0, x20
    5358:	94000000 	bl	0 <mod_timer>
    535c:	aa1c03e0 	mov	x0, x28
    5360:	94000000 	bl	0 <_raw_spin_unlock>
    5364:	a9467bfd 	ldp	x29, x30, [sp,#96]
    5368:	a9454ff4 	ldp	x20, x19, [sp,#80]
    536c:	a94457f6 	ldp	x22, x21, [sp,#64]
    5370:	a9435ff8 	ldp	x24, x23, [sp,#48]
    5374:	a94267fa 	ldp	x26, x25, [sp,#32]
    5378:	a9416ffc 	ldp	x28, x27, [sp,#16]
    537c:	9101c3ff 	add	sp, sp, #0x70
    5380:	d65f03c0 	ret
    5384:	f94003fc 	ldr	x28, [sp]
    5388:	17ffffcf 	b	52c4 <stmmac_tx_clean+0x2d4>
    538c:	911182c0 	add	x0, x22, #0x460
    5390:	94000000 	bl	0 <_raw_spin_lock>
    5394:	d538d088 	mrs	x8, tpidr_el1
    5398:	b943cac9 	ldr	w9, [x22,#968]
    539c:	34000349 	cbz	w9, 5404 <stmmac_tx_clean+0x414>
    53a0:	d2800009 	mov	x9, #0x0                   	// #0
    53a4:	f2a00009 	movk	x9, #0x0, lsl #16
    53a8:	f2c00009 	movk	x9, #0x0, lsl #32
    53ac:	f2e00009 	movk	x9, #0x0, lsl #48
    53b0:	b8696919 	ldr	w25, [x8,x9]
    53b4:	aa1f03f7 	mov	x23, xzr
    53b8:	aa1f03f8 	mov	x24, xzr
    53bc:	1280001a 	mov	w26, #0xffffffff            	// #-1
    53c0:	f941e2c8 	ldr	x8, [x22,#960]
    53c4:	8b17011b 	add	x27, x8, x23
    53c8:	91020375 	add	x21, x27, #0x80
    53cc:	aa1503e0 	mov	x0, x21
    53d0:	94000000 	bl	0 <_raw_spin_lock>
    53d4:	91024361 	add	x1, x27, #0x90
    53d8:	52800040 	mov	w0, #0x2                   	// #2
    53dc:	b9008779 	str	w25, [x27,#132]
    53e0:	94000000 	bl	0 <set_bit>
    53e4:	aa1503e0 	mov	x0, x21
    53e8:	b900877a 	str	w26, [x27,#132]
    53ec:	94000000 	bl	0 <_raw_spin_unlock>
    53f0:	b943cac8 	ldr	w8, [x22,#968]
    53f4:	91000718 	add	x24, x24, #0x1
    53f8:	910502f7 	add	x23, x23, #0x140
    53fc:	eb08031f 	cmp	x24, x8
    5400:	54fffe03 	b.cc	53c0 <stmmac_tx_clean+0x3d0>
    5404:	f9400276 	ldr	x22, [x19]
    5408:	f941e2c0 	ldr	x0, [x22,#960]
    540c:	f9404808 	ldr	x8, [x0,#144]
    5410:	36000168 	tbz	w8, #0, 543c <stmmac_tx_clean+0x44c>
    5414:	29432688 	ldp	w8, w9, [x20,#24]
    5418:	2a2803ea 	mvn	w10, w8
    541c:	6b080128 	subs	w8, w9, w8
    5420:	0b0a0129 	add	w9, w9, w10
    5424:	1107fd08 	add	w8, w8, #0x1ff
    5428:	1a888128 	csel	w8, w9, w8, hi
    542c:	7102051f 	cmp	w8, #0x81
    5430:	54000063 	b.cc	543c <stmmac_tx_clean+0x44c>
    5434:	94000000 	bl	0 <netif_tx_wake_queue>
    5438:	f9400276 	ldr	x22, [x19]
    543c:	b943cac8 	ldr	w8, [x22,#968]
    5440:	340001e8 	cbz	w8, 547c <stmmac_tx_clean+0x48c>
    5444:	aa1f03f3 	mov	x19, xzr
    5448:	52801217 	mov	w23, #0x90                  	// #144
    544c:	f941e2c8 	ldr	x8, [x22,#960]
    5450:	52800040 	mov	w0, #0x2                   	// #2
    5454:	8b170101 	add	x1, x8, x23
    5458:	d1024035 	sub	x21, x1, #0x90
    545c:	94000000 	bl	0 <clear_bit>
    5460:	aa1503e0 	mov	x0, x21
    5464:	94000000 	bl	0 <netif_schedule_queue>
    5468:	b943cac8 	ldr	w8, [x22,#968]
    546c:	91000673 	add	x19, x19, #0x1
    5470:	910502f7 	add	x23, x23, #0x140
    5474:	eb08027f 	cmp	x19, x8
    5478:	54fffea3 	b.cc	544c <stmmac_tx_clean+0x45c>
    547c:	911182c0 	add	x0, x22, #0x460
    5480:	94000000 	bl	0 <_raw_spin_unlock>
    5484:	b948a688 	ldr	w8, [x20,#2212]
    5488:	35fff3a8 	cbnz	w8, 52fc <stmmac_tx_clean+0x30c>
    548c:	17ffffb4 	b	535c <stmmac_tx_clean+0x36c>

0000000000005490 <stmmac_sysfs_ring_open>:
    5490:	a9be4ff4 	stp	x20, x19, [sp,#-32]!
    5494:	a9017bfd 	stp	x29, x30, [sp,#16]
    5498:	910043fd 	add	x29, sp, #0x10
    549c:	aa0103f3 	mov	x19, x1
    54a0:	aa0003f4 	mov	x20, x0
    54a4:	94000000 	bl	0 <_mcount>
    54a8:	f9411e82 	ldr	x2, [x20,#568]
    54ac:	d2800001 	mov	x1, #0x0                   	// #0
    54b0:	f2a00001 	movk	x1, #0x0, lsl #16
    54b4:	f2c00001 	movk	x1, #0x0, lsl #32
    54b8:	f2e00001 	movk	x1, #0x0, lsl #48
    54bc:	aa1303e0 	mov	x0, x19
    54c0:	94000000 	bl	0 <single_open>
    54c4:	a9417bfd 	ldp	x29, x30, [sp,#16]
    54c8:	a8c24ff4 	ldp	x20, x19, [sp],#32
    54cc:	d65f03c0 	ret

00000000000054d0 <stmmac_sysfs_ring_read>:
    54d0:	f81a0ffb 	str	x27, [sp,#-96]!
    54d4:	a90167fa 	stp	x26, x25, [sp,#16]
    54d8:	a9025ff8 	stp	x24, x23, [sp,#32]
    54dc:	a90357f6 	stp	x22, x21, [sp,#48]
    54e0:	a9044ff4 	stp	x20, x19, [sp,#64]
    54e4:	a9057bfd 	stp	x29, x30, [sp,#80]
    54e8:	910143fd 	add	x29, sp, #0x50
    54ec:	aa0003f3 	mov	x19, x0
    54f0:	94000000 	bl	0 <_mcount>
    54f4:	f9404277 	ldr	x23, [x19,#128]
    54f8:	b951b6e8 	ldr	w8, [x23,#4532]
    54fc:	34000968 	cbz	w8, 5628 <stmmac_sysfs_ring_read+0x158>
    5500:	d2800001 	mov	x1, #0x0                   	// #0
    5504:	f2a00001 	movk	x1, #0x0, lsl #16
    5508:	f2c00001 	movk	x1, #0x0, lsl #32
    550c:	f2e00001 	movk	x1, #0x0, lsl #48
    5510:	aa1303e0 	mov	x0, x19
    5514:	94000000 	bl	0 <seq_printf>
    5518:	f944e6fa 	ldr	x26, [x23,#2504]
    551c:	d2800018 	mov	x24, #0x0                   	// #0
    5520:	d2800014 	mov	x20, #0x0                   	// #0
    5524:	d2800015 	mov	x21, #0x0                   	// #0
    5528:	d2800019 	mov	x25, #0x0                   	// #0
    552c:	f2a00018 	movk	x24, #0x0, lsl #16
    5530:	f2a00014 	movk	x20, #0x0, lsl #16
    5534:	f2a00015 	movk	x21, #0x0, lsl #16
    5538:	f2a00019 	movk	x25, #0x0, lsl #16
    553c:	f2c00018 	movk	x24, #0x0, lsl #32
    5540:	f2c00014 	movk	x20, #0x0, lsl #32
    5544:	f2c00015 	movk	x21, #0x0, lsl #32
    5548:	f2c00019 	movk	x25, #0x0, lsl #32
    554c:	2a1f03f6 	mov	w22, wzr
    5550:	f2e00018 	movk	x24, #0x0, lsl #48
    5554:	f2e00014 	movk	x20, #0x0, lsl #48
    5558:	f2e00015 	movk	x21, #0x0, lsl #48
    555c:	f2e00019 	movk	x25, #0x0, lsl #48
    5560:	b730023a 	tbnz	x26, #38, 55a4 <stmmac_sysfs_ring_read+0xd4>
    5564:	f9400308 	ldr	x8, [x24]
    5568:	cb080343 	sub	x3, x26, x8
    556c:	29401744 	ldp	w4, w5, [x26]
    5570:	29411f46 	ldp	w6, w7, [x26,#8]
    5574:	aa1303e0 	mov	x0, x19
    5578:	aa1403e1 	mov	x1, x20
    557c:	2a1603e2 	mov	w2, w22
    5580:	94000000 	bl	0 <seq_printf>
    5584:	aa1303e0 	mov	x0, x19
    5588:	aa1503e1 	mov	x1, x21
    558c:	94000000 	bl	0 <seq_printf>
    5590:	110006d6 	add	w22, w22, #0x1
    5594:	710802df 	cmp	w22, #0x200
    5598:	9100835a 	add	x26, x26, #0x20
    559c:	540000c0 	b.eq	55b4 <stmmac_sysfs_ring_read+0xe4>
    55a0:	b637fe3a 	tbz	x26, #38, 5564 <stmmac_sysfs_ring_read+0x94>
    55a4:	f9400328 	ldr	x8, [x25]
    55a8:	92409749 	and	x9, x26, #0x3fffffffff
    55ac:	8b090103 	add	x3, x8, x9
    55b0:	17ffffef 	b	556c <stmmac_sysfs_ring_read+0x9c>
    55b4:	d2800001 	mov	x1, #0x0                   	// #0
    55b8:	f2a00001 	movk	x1, #0x0, lsl #16
    55bc:	f2c00001 	movk	x1, #0x0, lsl #32
    55c0:	f2e00001 	movk	x1, #0x0, lsl #48
    55c4:	aa1303e0 	mov	x0, x19
    55c8:	94000000 	bl	0 <seq_printf>
    55cc:	f94482f7 	ldr	x23, [x23,#2304]
    55d0:	2a1f03f6 	mov	w22, wzr
    55d4:	b7300237 	tbnz	x23, #38, 5618 <stmmac_sysfs_ring_read+0x148>
    55d8:	f9400308 	ldr	x8, [x24]
    55dc:	cb0802e3 	sub	x3, x23, x8
    55e0:	294016e4 	ldp	w4, w5, [x23]
    55e4:	29411ee6 	ldp	w6, w7, [x23,#8]
    55e8:	aa1303e0 	mov	x0, x19
    55ec:	aa1403e1 	mov	x1, x20
    55f0:	2a1603e2 	mov	w2, w22
    55f4:	94000000 	bl	0 <seq_printf>
    55f8:	aa1303e0 	mov	x0, x19
    55fc:	aa1503e1 	mov	x1, x21
    5600:	94000000 	bl	0 <seq_printf>
    5604:	110006d6 	add	w22, w22, #0x1
    5608:	710802df 	cmp	w22, #0x200
    560c:	910082f7 	add	x23, x23, #0x20
    5610:	54000980 	b.eq	5740 <stmmac_sysfs_ring_read+0x270>
    5614:	b637fe37 	tbz	x23, #38, 55d8 <stmmac_sysfs_ring_read+0x108>
    5618:	f9400328 	ldr	x8, [x25]
    561c:	924096e9 	and	x9, x23, #0x3fffffffff
    5620:	8b090103 	add	x3, x8, x9
    5624:	17ffffef 	b	55e0 <stmmac_sysfs_ring_read+0x110>
    5628:	d2800001 	mov	x1, #0x0                   	// #0
    562c:	f2a00001 	movk	x1, #0x0, lsl #16
    5630:	f2c00001 	movk	x1, #0x0, lsl #32
    5634:	f2e00001 	movk	x1, #0x0, lsl #48
    5638:	aa1303e0 	mov	x0, x19
    563c:	94000000 	bl	0 <seq_printf>
    5640:	f944e2fa 	ldr	x26, [x23,#2496]
    5644:	d2800018 	mov	x24, #0x0                   	// #0
    5648:	d2800019 	mov	x25, #0x0                   	// #0
    564c:	d2800014 	mov	x20, #0x0                   	// #0
    5650:	d2800015 	mov	x21, #0x0                   	// #0
    5654:	f2a00018 	movk	x24, #0x0, lsl #16
    5658:	f2a00019 	movk	x25, #0x0, lsl #16
    565c:	f2a00014 	movk	x20, #0x0, lsl #16
    5660:	f2a00015 	movk	x21, #0x0, lsl #16
    5664:	f2c00018 	movk	x24, #0x0, lsl #32
    5668:	f2c00019 	movk	x25, #0x0, lsl #32
    566c:	f2c00014 	movk	x20, #0x0, lsl #32
    5670:	f2c00015 	movk	x21, #0x0, lsl #32
    5674:	2a1f03f6 	mov	w22, wzr
    5678:	f2e00018 	movk	x24, #0x0, lsl #48
    567c:	f2e00019 	movk	x25, #0x0, lsl #48
    5680:	f2e00014 	movk	x20, #0x0, lsl #48
    5684:	f2e00015 	movk	x21, #0x0, lsl #48
    5688:	aa1a03fb 	mov	x27, x26
    568c:	b9400308 	ldr	w8, [x24]
    5690:	b9400329 	ldr	w9, [x25]
    5694:	29401764 	ldp	w4, w5, [x27]
    5698:	29411f66 	ldp	w6, w7, [x27,#8]
    569c:	f25a035f 	tst	x26, #0x4000000000
    56a0:	5a891508 	csneg	w8, w8, w9, ne
    56a4:	0b1a0103 	add	w3, w8, w26
    56a8:	aa1303e0 	mov	x0, x19
    56ac:	aa1403e1 	mov	x1, x20
    56b0:	2a1603e2 	mov	w2, w22
    56b4:	94000000 	bl	0 <seq_printf>
    56b8:	aa1303e0 	mov	x0, x19
    56bc:	aa1503e1 	mov	x1, x21
    56c0:	94000000 	bl	0 <seq_printf>
    56c4:	110006d6 	add	w22, w22, #0x1
    56c8:	710802df 	cmp	w22, #0x200
    56cc:	9100437b 	add	x27, x27, #0x10
    56d0:	54fffde1 	b.ne	568c <stmmac_sysfs_ring_read+0x1bc>
    56d4:	d2800001 	mov	x1, #0x0                   	// #0
    56d8:	f2a00001 	movk	x1, #0x0, lsl #16
    56dc:	f2c00001 	movk	x1, #0x0, lsl #32
    56e0:	f2e00001 	movk	x1, #0x0, lsl #48
    56e4:	aa1303e0 	mov	x0, x19
    56e8:	94000000 	bl	0 <seq_printf>
    56ec:	f94486f7 	ldr	x23, [x23,#2312]
    56f0:	2a1f03f6 	mov	w22, wzr
    56f4:	aa1703fa 	mov	x26, x23
    56f8:	b9400308 	ldr	w8, [x24]
    56fc:	b9400329 	ldr	w9, [x25]
    5700:	29401744 	ldp	w4, w5, [x26]
    5704:	29411f46 	ldp	w6, w7, [x26,#8]
    5708:	f25a02ff 	tst	x23, #0x4000000000
    570c:	5a891508 	csneg	w8, w8, w9, ne
    5710:	0b170103 	add	w3, w8, w23
    5714:	aa1303e0 	mov	x0, x19
    5718:	aa1403e1 	mov	x1, x20
    571c:	2a1603e2 	mov	w2, w22
    5720:	94000000 	bl	0 <seq_printf>
    5724:	aa1303e0 	mov	x0, x19
    5728:	aa1503e1 	mov	x1, x21
    572c:	94000000 	bl	0 <seq_printf>
    5730:	110006d6 	add	w22, w22, #0x1
    5734:	710802df 	cmp	w22, #0x200
    5738:	9100435a 	add	x26, x26, #0x10
    573c:	54fffde1 	b.ne	56f8 <stmmac_sysfs_ring_read+0x228>
    5740:	a9457bfd 	ldp	x29, x30, [sp,#80]
    5744:	a9444ff4 	ldp	x20, x19, [sp,#64]
    5748:	a94357f6 	ldp	x22, x21, [sp,#48]
    574c:	a9425ff8 	ldp	x24, x23, [sp,#32]
    5750:	a94167fa 	ldp	x26, x25, [sp,#16]
    5754:	2a1f03e0 	mov	w0, wzr
    5758:	f84607fb 	ldr	x27, [sp],#96
    575c:	d65f03c0 	ret

0000000000005760 <stmmac_sysfs_dma_cap_open>:
    5760:	a9be4ff4 	stp	x20, x19, [sp,#-32]!
    5764:	a9017bfd 	stp	x29, x30, [sp,#16]
    5768:	910043fd 	add	x29, sp, #0x10
    576c:	aa0103f3 	mov	x19, x1
    5770:	aa0003f4 	mov	x20, x0
    5774:	94000000 	bl	0 <_mcount>
    5778:	f9411e82 	ldr	x2, [x20,#568]
    577c:	d2800001 	mov	x1, #0x0                   	// #0
    5780:	f2a00001 	movk	x1, #0x0, lsl #16
    5784:	f2c00001 	movk	x1, #0x0, lsl #32
    5788:	f2e00001 	movk	x1, #0x0, lsl #48
    578c:	aa1303e0 	mov	x0, x19
    5790:	94000000 	bl	0 <single_open>
    5794:	a9417bfd 	ldp	x29, x30, [sp,#16]
    5798:	a8c24ff4 	ldp	x20, x19, [sp],#32
    579c:	d65f03c0 	ret

00000000000057a0 <stmmac_sysfs_dma_cap_read>:
    57a0:	a9bd57f6 	stp	x22, x21, [sp,#-48]!
    57a4:	a9014ff4 	stp	x20, x19, [sp,#16]
    57a8:	a9027bfd 	stp	x29, x30, [sp,#32]
    57ac:	910083fd 	add	x29, sp, #0x20
    57b0:	aa0003f3 	mov	x19, x0
    57b4:	94000000 	bl	0 <_mcount>
    57b8:	f9404275 	ldr	x21, [x19,#128]
    57bc:	b95122a8 	ldr	w8, [x21,#4384]
    57c0:	34001528 	cbz	w8, 5a64 <stmmac_sysfs_dma_cap_read+0x2c4>
    57c4:	d2800014 	mov	x20, #0x0                   	// #0
    57c8:	f2a00014 	movk	x20, #0x0, lsl #16
    57cc:	f2c00014 	movk	x20, #0x0, lsl #32
    57d0:	f2e00014 	movk	x20, #0x0, lsl #48
    57d4:	aa1303e0 	mov	x0, x19
    57d8:	aa1403e1 	mov	x1, x20
    57dc:	94000000 	bl	0 <seq_printf>
    57e0:	d2800001 	mov	x1, #0x0                   	// #0
    57e4:	f2a00001 	movk	x1, #0x0, lsl #16
    57e8:	f2c00001 	movk	x1, #0x0, lsl #32
    57ec:	f2e00001 	movk	x1, #0x0, lsl #48
    57f0:	aa1303e0 	mov	x0, x19
    57f4:	94000000 	bl	0 <seq_printf>
    57f8:	aa1303e0 	mov	x0, x19
    57fc:	aa1403e1 	mov	x1, x20
    5800:	94000000 	bl	0 <seq_printf>
    5804:	b94f8aa8 	ldr	w8, [x21,#3976]
    5808:	d2800014 	mov	x20, #0x0                   	// #0
    580c:	d2800016 	mov	x22, #0x0                   	// #0
    5810:	f2a00014 	movk	x20, #0x0, lsl #16
    5814:	f2a00016 	movk	x22, #0x0, lsl #16
    5818:	d2800001 	mov	x1, #0x0                   	// #0
    581c:	f2c00014 	movk	x20, #0x0, lsl #32
    5820:	f2c00016 	movk	x22, #0x0, lsl #32
    5824:	f2a00001 	movk	x1, #0x0, lsl #16
    5828:	f2e00014 	movk	x20, #0x0, lsl #48
    582c:	f2e00016 	movk	x22, #0x0, lsl #48
    5830:	7100011f 	cmp	w8, #0x0
    5834:	f2c00001 	movk	x1, #0x0, lsl #32
    5838:	9a9402c2 	csel	x2, x22, x20, eq
    583c:	f2e00001 	movk	x1, #0x0, lsl #48
    5840:	aa1303e0 	mov	x0, x19
    5844:	94000000 	bl	0 <seq_printf>
    5848:	b94f8ea8 	ldr	w8, [x21,#3980]
    584c:	d2800001 	mov	x1, #0x0                   	// #0
    5850:	f2a00001 	movk	x1, #0x0, lsl #16
    5854:	f2c00001 	movk	x1, #0x0, lsl #32
    5858:	7100011f 	cmp	w8, #0x0
    585c:	9a9402c2 	csel	x2, x22, x20, eq
    5860:	f2e00001 	movk	x1, #0x0, lsl #48
    5864:	aa1303e0 	mov	x0, x19
    5868:	94000000 	bl	0 <seq_printf>
    586c:	b94f92a8 	ldr	w8, [x21,#3984]
    5870:	d2800001 	mov	x1, #0x0                   	// #0
    5874:	f2a00001 	movk	x1, #0x0, lsl #16
    5878:	f2c00001 	movk	x1, #0x0, lsl #32
    587c:	7100011f 	cmp	w8, #0x0
    5880:	9a9402c2 	csel	x2, x22, x20, eq
    5884:	f2e00001 	movk	x1, #0x0, lsl #48
    5888:	aa1303e0 	mov	x0, x19
    588c:	94000000 	bl	0 <seq_printf>
    5890:	b94f96a8 	ldr	w8, [x21,#3988]
    5894:	d2800001 	mov	x1, #0x0                   	// #0
    5898:	f2a00001 	movk	x1, #0x0, lsl #16
    589c:	f2c00001 	movk	x1, #0x0, lsl #32
    58a0:	7100011f 	cmp	w8, #0x0
    58a4:	9a9402c2 	csel	x2, x22, x20, eq
    58a8:	f2e00001 	movk	x1, #0x0, lsl #48
    58ac:	aa1303e0 	mov	x0, x19
    58b0:	94000000 	bl	0 <seq_printf>
    58b4:	b94f9aa8 	ldr	w8, [x21,#3992]
    58b8:	d2800001 	mov	x1, #0x0                   	// #0
    58bc:	f2a00001 	movk	x1, #0x0, lsl #16
    58c0:	f2c00001 	movk	x1, #0x0, lsl #32
    58c4:	7100011f 	cmp	w8, #0x0
    58c8:	9a9402c2 	csel	x2, x22, x20, eq
    58cc:	f2e00001 	movk	x1, #0x0, lsl #48
    58d0:	aa1303e0 	mov	x0, x19
    58d4:	94000000 	bl	0 <seq_printf>
    58d8:	b94f9ea8 	ldr	w8, [x21,#3996]
    58dc:	d2800001 	mov	x1, #0x0                   	// #0
    58e0:	f2a00001 	movk	x1, #0x0, lsl #16
    58e4:	f2c00001 	movk	x1, #0x0, lsl #32
    58e8:	7100011f 	cmp	w8, #0x0
    58ec:	9a9402c2 	csel	x2, x22, x20, eq
    58f0:	f2e00001 	movk	x1, #0x0, lsl #48
    58f4:	aa1303e0 	mov	x0, x19
    58f8:	94000000 	bl	0 <seq_printf>
    58fc:	b94fa2a8 	ldr	w8, [x21,#4000]
    5900:	d2800001 	mov	x1, #0x0                   	// #0
    5904:	f2a00001 	movk	x1, #0x0, lsl #16
    5908:	f2c00001 	movk	x1, #0x0, lsl #32
    590c:	7100011f 	cmp	w8, #0x0
    5910:	9a9402c2 	csel	x2, x22, x20, eq
    5914:	f2e00001 	movk	x1, #0x0, lsl #48
    5918:	aa1303e0 	mov	x0, x19
    591c:	94000000 	bl	0 <seq_printf>
    5920:	b94fa6a8 	ldr	w8, [x21,#4004]
    5924:	d2800001 	mov	x1, #0x0                   	// #0
    5928:	f2a00001 	movk	x1, #0x0, lsl #16
    592c:	f2c00001 	movk	x1, #0x0, lsl #32
    5930:	7100011f 	cmp	w8, #0x0
    5934:	9a9402c2 	csel	x2, x22, x20, eq
    5938:	f2e00001 	movk	x1, #0x0, lsl #48
    593c:	aa1303e0 	mov	x0, x19
    5940:	94000000 	bl	0 <seq_printf>
    5944:	b94faaa8 	ldr	w8, [x21,#4008]
    5948:	d2800001 	mov	x1, #0x0                   	// #0
    594c:	f2a00001 	movk	x1, #0x0, lsl #16
    5950:	f2c00001 	movk	x1, #0x0, lsl #32
    5954:	7100011f 	cmp	w8, #0x0
    5958:	9a9402c2 	csel	x2, x22, x20, eq
    595c:	f2e00001 	movk	x1, #0x0, lsl #48
    5960:	aa1303e0 	mov	x0, x19
    5964:	94000000 	bl	0 <seq_printf>
    5968:	b94faea8 	ldr	w8, [x21,#4012]
    596c:	d2800001 	mov	x1, #0x0                   	// #0
    5970:	f2a00001 	movk	x1, #0x0, lsl #16
    5974:	f2c00001 	movk	x1, #0x0, lsl #32
    5978:	7100011f 	cmp	w8, #0x0
    597c:	9a9402c2 	csel	x2, x22, x20, eq
    5980:	f2e00001 	movk	x1, #0x0, lsl #48
    5984:	aa1303e0 	mov	x0, x19
    5988:	94000000 	bl	0 <seq_printf>
    598c:	b94fb2a8 	ldr	w8, [x21,#4016]
    5990:	d2800001 	mov	x1, #0x0                   	// #0
    5994:	f2a00001 	movk	x1, #0x0, lsl #16
    5998:	f2c00001 	movk	x1, #0x0, lsl #32
    599c:	7100011f 	cmp	w8, #0x0
    59a0:	9a9402c2 	csel	x2, x22, x20, eq
    59a4:	f2e00001 	movk	x1, #0x0, lsl #48
    59a8:	aa1303e0 	mov	x0, x19
    59ac:	94000000 	bl	0 <seq_printf>
    59b0:	b94fb6a8 	ldr	w8, [x21,#4020]
    59b4:	d2800001 	mov	x1, #0x0                   	// #0
    59b8:	f2a00001 	movk	x1, #0x0, lsl #16
    59bc:	f2c00001 	movk	x1, #0x0, lsl #32
    59c0:	7100011f 	cmp	w8, #0x0
    59c4:	9a9402c2 	csel	x2, x22, x20, eq
    59c8:	f2e00001 	movk	x1, #0x0, lsl #48
    59cc:	aa1303e0 	mov	x0, x19
    59d0:	94000000 	bl	0 <seq_printf>
    59d4:	b94fbaa8 	ldr	w8, [x21,#4024]
    59d8:	d2800001 	mov	x1, #0x0                   	// #0
    59dc:	f2a00001 	movk	x1, #0x0, lsl #16
    59e0:	f2c00001 	movk	x1, #0x0, lsl #32
    59e4:	7100011f 	cmp	w8, #0x0
    59e8:	9a9402c2 	csel	x2, x22, x20, eq
    59ec:	f2e00001 	movk	x1, #0x0, lsl #48
    59f0:	aa1303e0 	mov	x0, x19
    59f4:	94000000 	bl	0 <seq_printf>
    59f8:	b94fbea8 	ldr	w8, [x21,#4028]
    59fc:	d2800001 	mov	x1, #0x0                   	// #0
    5a00:	f2a00001 	movk	x1, #0x0, lsl #16
    5a04:	f2c00001 	movk	x1, #0x0, lsl #32
    5a08:	7100011f 	cmp	w8, #0x0
    5a0c:	9a9402c2 	csel	x2, x22, x20, eq
    5a10:	f2e00001 	movk	x1, #0x0, lsl #48
    5a14:	aa1303e0 	mov	x0, x19
    5a18:	94000000 	bl	0 <seq_printf>
    5a1c:	b94fc6a8 	ldr	w8, [x21,#4036]
    5a20:	d2800001 	mov	x1, #0x0                   	// #0
    5a24:	f2a00001 	movk	x1, #0x0, lsl #16
    5a28:	f2c00001 	movk	x1, #0x0, lsl #32
    5a2c:	7100011f 	cmp	w8, #0x0
    5a30:	9a9402c2 	csel	x2, x22, x20, eq
    5a34:	f2e00001 	movk	x1, #0x0, lsl #48
    5a38:	aa1303e0 	mov	x0, x19
    5a3c:	94000000 	bl	0 <seq_printf>
    5a40:	b95126a8 	ldr	w8, [x21,#4388]
    5a44:	7101011f 	cmp	w8, #0x40
    5a48:	540001cb 	b.lt	5a80 <stmmac_sysfs_dma_cap_read+0x2e0>
    5a4c:	d2800001 	mov	x1, #0x0                   	// #0
    5a50:	f2a00001 	movk	x1, #0x0, lsl #16
    5a54:	f2c00001 	movk	x1, #0x0, lsl #32
    5a58:	913f22a8 	add	x8, x21, #0xfc8
    5a5c:	f2e00001 	movk	x1, #0x0, lsl #48
    5a60:	14000016 	b	5ab8 <stmmac_sysfs_dma_cap_read+0x318>
    5a64:	d2800001 	mov	x1, #0x0                   	// #0
    5a68:	f2a00001 	movk	x1, #0x0, lsl #16
    5a6c:	f2c00001 	movk	x1, #0x0, lsl #32
    5a70:	f2e00001 	movk	x1, #0x0, lsl #48
    5a74:	aa1303e0 	mov	x0, x19
    5a78:	94000000 	bl	0 <seq_printf>
    5a7c:	14000034 	b	5b4c <stmmac_sysfs_dma_cap_read+0x3ac>
    5a80:	b94fcea8 	ldr	w8, [x21,#4044]
    5a84:	d2800001 	mov	x1, #0x0                   	// #0
    5a88:	f2a00001 	movk	x1, #0x0, lsl #16
    5a8c:	f2c00001 	movk	x1, #0x0, lsl #32
    5a90:	7100011f 	cmp	w8, #0x0
    5a94:	9a9402c2 	csel	x2, x22, x20, eq
    5a98:	f2e00001 	movk	x1, #0x0, lsl #48
    5a9c:	aa1303e0 	mov	x0, x19
    5aa0:	94000000 	bl	0 <seq_printf>
    5aa4:	d2800001 	mov	x1, #0x0                   	// #0
    5aa8:	f2a00001 	movk	x1, #0x0, lsl #16
    5aac:	f2c00001 	movk	x1, #0x0, lsl #32
    5ab0:	913f42a8 	add	x8, x21, #0xfd0
    5ab4:	f2e00001 	movk	x1, #0x0, lsl #48
    5ab8:	b9400108 	ldr	w8, [x8]
    5abc:	aa1303e0 	mov	x0, x19
    5ac0:	7100011f 	cmp	w8, #0x0
    5ac4:	9a9402c2 	csel	x2, x22, x20, eq
    5ac8:	94000000 	bl	0 <seq_printf>
    5acc:	b94fd6a8 	ldr	w8, [x21,#4052]
    5ad0:	d2800001 	mov	x1, #0x0                   	// #0
    5ad4:	f2a00001 	movk	x1, #0x0, lsl #16
    5ad8:	f2c00001 	movk	x1, #0x0, lsl #32
    5adc:	7100011f 	cmp	w8, #0x0
    5ae0:	9a9402c2 	csel	x2, x22, x20, eq
    5ae4:	f2e00001 	movk	x1, #0x0, lsl #48
    5ae8:	aa1303e0 	mov	x0, x19
    5aec:	94000000 	bl	0 <seq_printf>
    5af0:	b94fdaa2 	ldr	w2, [x21,#4056]
    5af4:	d2800001 	mov	x1, #0x0                   	// #0
    5af8:	f2a00001 	movk	x1, #0x0, lsl #16
    5afc:	f2c00001 	movk	x1, #0x0, lsl #32
    5b00:	f2e00001 	movk	x1, #0x0, lsl #48
    5b04:	aa1303e0 	mov	x0, x19
    5b08:	94000000 	bl	0 <seq_printf>
    5b0c:	b94fdea2 	ldr	w2, [x21,#4060]
    5b10:	d2800001 	mov	x1, #0x0                   	// #0
    5b14:	f2a00001 	movk	x1, #0x0, lsl #16
    5b18:	f2c00001 	movk	x1, #0x0, lsl #32
    5b1c:	f2e00001 	movk	x1, #0x0, lsl #48
    5b20:	aa1303e0 	mov	x0, x19
    5b24:	94000000 	bl	0 <seq_printf>
    5b28:	b94fe2a8 	ldr	w8, [x21,#4064]
    5b2c:	d2800001 	mov	x1, #0x0                   	// #0
    5b30:	f2a00001 	movk	x1, #0x0, lsl #16
    5b34:	f2c00001 	movk	x1, #0x0, lsl #32
    5b38:	7100011f 	cmp	w8, #0x0
    5b3c:	9a9402c2 	csel	x2, x22, x20, eq
    5b40:	f2e00001 	movk	x1, #0x0, lsl #48
    5b44:	aa1303e0 	mov	x0, x19
    5b48:	94000000 	bl	0 <seq_printf>
    5b4c:	a9427bfd 	ldp	x29, x30, [sp,#32]
    5b50:	a9414ff4 	ldp	x20, x19, [sp,#16]
    5b54:	2a1f03e0 	mov	w0, wzr
    5b58:	a8c357f6 	ldp	x22, x21, [sp],#48
    5b5c:	d65f03c0 	ret

0000000000005b60 <stmmac_tx_timer>:
    5b60:	f81e0ff3 	str	x19, [sp,#-32]!
    5b64:	a9017bfd 	stp	x29, x30, [sp,#16]
    5b68:	910043fd 	add	x29, sp, #0x10
    5b6c:	aa0003f3 	mov	x19, x0
    5b70:	94000000 	bl	0 <_mcount>
    5b74:	aa1303e0 	mov	x0, x19
    5b78:	97fffd1e 	bl	4ff0 <stmmac_tx_clean>
    5b7c:	a9417bfd 	ldp	x29, x30, [sp,#16]
    5b80:	f84207f3 	ldr	x19, [sp],#32
    5b84:	d65f03c0 	ret

0000000000005b88 <stmmac_set_ethtool_ops>:
    5b88:	f81e0ff3 	str	x19, [sp,#-32]!
    5b8c:	a9017bfd 	stp	x29, x30, [sp,#16]
    5b90:	910043fd 	add	x29, sp, #0x10
    5b94:	aa0003f3 	mov	x19, x0
    5b98:	94000000 	bl	0 <_mcount>
    5b9c:	d2800008 	mov	x8, #0x0                   	// #0
    5ba0:	f2a00008 	movk	x8, #0x0, lsl #16
    5ba4:	f2c00008 	movk	x8, #0x0, lsl #32
    5ba8:	f2e00008 	movk	x8, #0x0, lsl #48
    5bac:	f9010e68 	str	x8, [x19,#536]
    5bb0:	a9417bfd 	ldp	x29, x30, [sp,#16]
    5bb4:	f84207f3 	ldr	x19, [sp],#32
    5bb8:	d65f03c0 	ret

0000000000005bbc <stmmac_ethtool_getsettings>:
    5bbc:	d100c3ff 	sub	sp, sp, #0x30
    5bc0:	a9014ff4 	stp	x20, x19, [sp,#16]
    5bc4:	a9027bfd 	stp	x29, x30, [sp,#32]
    5bc8:	910083fd 	add	x29, sp, #0x20
    5bcc:	aa0103f3 	mov	x19, x1
    5bd0:	aa0003f4 	mov	x20, x0
    5bd4:	94000000 	bl	0 <_mcount>
    5bd8:	f9459288 	ldr	x8, [x20,#2848]
    5bdc:	39416108 	ldrb	w8, [x8,#88]
    5be0:	7200051f 	tst	w8, #0x3
    5be4:	54000640 	b.eq	5cac <stmmac_ethtool_getsettings+0xf0>
    5be8:	f9474e88 	ldr	x8, [x20,#3736]
    5bec:	b4000788 	cbz	x8, 5cdc <stmmac_ethtool_getsettings+0x120>
    5bf0:	f9475288 	ldr	x8, [x20,#3744]
    5bf4:	39003a68 	strb	w8, [x19,#14]
    5bf8:	f9475688 	ldr	x8, [x20,#3752]
    5bfc:	79001a68 	strh	w8, [x19,#12]
    5c00:	d3507d08 	ubfx	x8, x8, #16, #16
    5c04:	79003a68 	strh	w8, [x19,#28]
    5c08:	f9459288 	ldr	x8, [x20,#2848]
    5c0c:	f9400108 	ldr	x8, [x8]
    5c10:	f9404108 	ldr	x8, [x8,#128]
    5c14:	b4000728 	cbz	x8, 5cf8 <stmmac_ethtool_getsettings+0x13c>
    5c18:	f9458680 	ldr	x0, [x20,#2824]
    5c1c:	910003e1 	mov	x1, sp
    5c20:	d63f0100 	blr	x8
    5c24:	b94003e8 	ldr	w8, [sp]
    5c28:	37000848 	tbnz	w8, #0, 5d30 <stmmac_ethtool_getsettings+0x174>
    5c2c:	370808a8 	tbnz	w8, #1, 5d40 <stmmac_ethtool_getsettings+0x184>
    5c30:	b9400be9 	ldr	w9, [sp,#8]
    5c34:	37000909 	tbnz	w9, #0, 5d54 <stmmac_ethtool_getsettings+0x198>
    5c38:	b9402268 	ldr	w8, [x19,#32]
    5c3c:	36080069 	tbz	w9, #1, 5c48 <stmmac_ethtool_getsettings+0x8c>
    5c40:	32120108 	orr	w8, w8, #0x4000
    5c44:	b9002268 	str	w8, [x19,#32]
    5c48:	2940ae6a 	ldp	w10, w11, [x19,#4]
    5c4c:	52800809 	mov	w9, #0x40                  	// #64
    5c50:	321a010c 	orr	w12, w8, #0x40
    5c54:	39004a69 	strb	w9, [x19,#18]
    5c58:	b900226c 	str	w12, [x19,#32]
    5c5c:	321a0149 	orr	w9, w10, #0x40
    5c60:	321a016c 	orr	w12, w11, #0x40
    5c64:	2900b269 	stp	w9, w12, [x19,#4]
    5c68:	b94007e9 	ldr	w9, [sp,#4]
    5c6c:	52800d4c 	mov	w12, #0x6a                  	// #106
    5c70:	52800aad 	mov	w13, #0x55                  	// #85
    5c74:	2a1f03e0 	mov	w0, wzr
    5c78:	7100013f 	cmp	w9, #0x0
    5c7c:	1a8c01a9 	csel	w9, w13, w12, eq
    5c80:	2a09014a 	orr	w10, w10, w9
    5c84:	2a090169 	orr	w9, w11, w9
    5c88:	2900a66a 	stp	w10, w9, [x19,#4]
